ccopy_reg
_reconstructor
p1
(cscipy.sparse.lil
lil_matrix
p2
c__builtin__
object
p3
NtRp4
(dp5
S'rows'
p6
cnumpy.core.multiarray
_reconstruct
p7
(cnumpy
ndarray
p8
(I0
tS'b'
tRp9
(I1
(I3650
tcnumpy
dtype
p10
(S'O8'
I0
I1
tRp11
(I3
S'|'
NNNI-1
I-1
I63
tbI00
(lp12
(lp13
a(lp14
a(lp15
a(lp16
a(lp17
a(lp18
a(lp19
a(lp20
a(lp21
a(lp22
a(lp23
a(lp24
a(lp25
a(lp26
a(lp27
a(lp28
a(lp29
a(lp30
a(lp31
a(lp32
a(lp33
a(lp34
a(lp35
a(lp36
a(lp37
a(lp38
a(lp39
a(lp40
a(lp41
a(lp42
a(lp43
a(lp44
a(lp45
a(lp46
a(lp47
a(lp48
a(lp49
a(lp50
a(lp51
a(lp52
a(lp53
a(lp54
a(lp55
a(lp56
a(lp57
a(lp58
a(lp59
a(lp60
a(lp61
a(lp62
a(lp63
a(lp64
a(lp65
a(lp66
a(lp67
a(lp68
a(lp69
a(lp70
a(lp71
I58
aI423
aI788
aI1153
aI1518
aI1883
aI2248
aI2613
aI2978
aI3343
aa(lp72
a(lp73
a(lp74
a(lp75
a(lp76
a(lp77
a(lp78
a(lp79
a(lp80
a(lp81
a(lp82
a(lp83
a(lp84
a(lp85
a(lp86
a(lp87
a(lp88
a(lp89
I76
aI441
aI806
aI1171
aI1536
aI1901
aI2266
aI2631
aI2996
aI3361
aa(lp90
a(lp91
a(lp92
a(lp93
a(lp94
a(lp95
a(lp96
I83
aI448
aI813
aI1178
aI1543
aI1908
aI2273
aI2638
aI3003
aI3368
aa(lp97
a(lp98
a(lp99
a(lp100
a(lp101
a(lp102
a(lp103
a(lp104
a(lp105
a(lp106
a(lp107
a(lp108
a(lp109
a(lp110
a(lp111
a(lp112
a(lp113
a(lp114
a(lp115
a(lp116
a(lp117
a(lp118
a(lp119
a(lp120
a(lp121
I108
aI473
aI838
aI1203
aI1568
aI1933
aI2298
aI2663
aI3028
aI3393
aa(lp122
a(lp123
a(lp124
a(lp125
a(lp126
a(lp127
a(lp128
a(lp129
a(lp130
a(lp131
a(lp132
a(lp133
a(lp134
a(lp135
I122
aI487
aI852
aI1217
aI1582
aI1947
aI2312
aI2677
aI3042
aI3407
aa(lp136
a(lp137
I124
aI489
aI854
aI1219
aI1584
aI1949
aI2314
aI2679
aI3044
aI3409
aa(lp138
a(lp139
a(lp140
a(lp141
a(lp142
a(lp143
a(lp144
a(lp145
a(lp146
a(lp147
a(lp148
a(lp149
a(lp150
a(lp151
a(lp152
a(lp153
a(lp154
a(lp155
a(lp156
a(lp157
a(lp158
a(lp159
a(lp160
a(lp161
a(lp162
a(lp163
a(lp164
a(lp165
a(lp166
a(lp167
a(lp168
a(lp169
I156
aI521
aI1251
aI1616
aI1981
aI2346
aI2711
aI3076
aI3441
aa(lp170
a(lp171
a(lp172
a(lp173
a(lp174
a(lp175
a(lp176
a(lp177
a(lp178
a(lp179
a(lp180
a(lp181
a(lp182
a(lp183
I170
aI535
aI900
aI1265
aI1630
aI1995
aI2360
aI2725
aI3090
aI3455
aa(lp184
a(lp185
I172
aI537
aI1267
aI1632
aI1997
aI2362
aI2727
aI3092
aI3457
aa(lp186
a(lp187
a(lp188
a(lp189
a(lp190
a(lp191
a(lp192
a(lp193
a(lp194
a(lp195
a(lp196
a(lp197
a(lp198
a(lp199
a(lp200
a(lp201
a(lp202
a(lp203
a(lp204
a(lp205
a(lp206
a(lp207
a(lp208
I195
aI560
aI925
aI1290
aI1655
aI2020
aI2385
aI2750
aI3115
aI3480
aa(lp209
a(lp210
a(lp211
a(lp212
a(lp213
a(lp214
a(lp215
I202
aI567
aI932
aI1297
aI1662
aI2027
aI2392
aI2757
aI3122
aI3487
aa(lp216
a(lp217
a(lp218
a(lp219
a(lp220
a(lp221
a(lp222
a(lp223
a(lp224
a(lp225
a(lp226
a(lp227
a(lp228
a(lp229
a(lp230
a(lp231
a(lp232
a(lp233
a(lp234
a(lp235
a(lp236
a(lp237
a(lp238
a(lp239
a(lp240
I227
aI592
aI957
aI1322
aI1687
aI2052
aI2417
aI2782
aI3147
aI3512
aa(lp241
a(lp242
a(lp243
a(lp244
a(lp245
a(lp246
a(lp247
I234
aI599
aI964
aI1329
aI1694
aI2059
aI2424
aI2789
aI3154
aI3519
aa(lp248
a(lp249
I236
aI601
aI966
aI1331
aI1696
aI2061
aI2426
aI2791
aI3156
aI3521
aa(lp250
a(lp251
a(lp252
a(lp253
a(lp254
a(lp255
a(lp256
I243
aI608
aI973
aI1338
aI1703
aI2068
aI2433
aI2798
aI3163
aI3528
aa(lp257
a(lp258
a(lp259
a(lp260
a(lp261
a(lp262
a(lp263
a(lp264
a(lp265
a(lp266
a(lp267
a(lp268
a(lp269
a(lp270
a(lp271
a(lp272
I259
aI624
aI989
aI1354
aI1719
aI2084
aI2449
aI2814
aI3179
aI3544
aa(lp273
a(lp274
a(lp275
a(lp276
a(lp277
a(lp278
a(lp279
a(lp280
a(lp281
I268
aI633
aI998
aI1363
aI1728
aI2093
aI2458
aI2823
aI3188
aI3553
aa(lp282
a(lp283
a(lp284
a(lp285
a(lp286
a(lp287
a(lp288
a(lp289
a(lp290
a(lp291
a(lp292
a(lp293
a(lp294
a(lp295
a(lp296
a(lp297
a(lp298
a(lp299
a(lp300
a(lp301
a(lp302
a(lp303
a(lp304
I291
aI656
aI1021
aI1386
aI1751
aI2116
aI2481
aI2846
aI3211
aI3576
aa(lp305
a(lp306
a(lp307
a(lp308
a(lp309
a(lp310
a(lp311
a(lp312
a(lp313
I300
aI665
aI1030
aI1395
aI1760
aI2125
aI2490
aI2855
aI3220
aI3585
aa(lp314
a(lp315
a(lp316
a(lp317
a(lp318
a(lp319
a(lp320
a(lp321
a(lp322
a(lp323
a(lp324
a(lp325
a(lp326
a(lp327
a(lp328
a(lp329
a(lp330
a(lp331
a(lp332
a(lp333
a(lp334
a(lp335
a(lp336
a(lp337
a(lp338
a(lp339
a(lp340
a(lp341
a(lp342
a(lp343
a(lp344
a(lp345
a(lp346
a(lp347
a(lp348
a(lp349
a(lp350
a(lp351
a(lp352
a(lp353
a(lp354
a(lp355
a(lp356
a(lp357
a(lp358
a(lp359
a(lp360
a(lp361
a(lp362
a(lp363
a(lp364
a(lp365
a(lp366
a(lp367
a(lp368
a(lp369
a(lp370
a(lp371
a(lp372
a(lp373
a(lp374
a(lp375
a(lp376
a(lp377
a(lp378
a(lp379
a(lp380
a(lp381
a(lp382
a(lp383
a(lp384
a(lp385
a(lp386
a(lp387
a(lp388
a(lp389
a(lp390
a(lp391
a(lp392
a(lp393
a(lp394
a(lp395
a(lp396
a(lp397
a(lp398
a(lp399
a(lp400
a(lp401
a(lp402
a(lp403
a(lp404
a(lp405
a(lp406
a(lp407
a(lp408
a(lp409
a(lp410
a(lp411
a(lp412
a(lp413
a(lp414
a(lp415
a(lp416
a(lp417
a(lp418
a(lp419
a(lp420
a(lp421
a(lp422
a(lp423
a(lp424
a(lp425
a(lp426
a(lp427
a(lp428
a(lp429
a(lp430
a(lp431
a(lp432
a(lp433
a(lp434
a(lp435
a(lp436
I58
aI423
aI788
aI1153
aI1518
aI1883
aI2248
aI2613
aI2978
aI3343
aa(lp437
a(lp438
a(lp439
a(lp440
a(lp441
a(lp442
a(lp443
a(lp444
a(lp445
a(lp446
a(lp447
a(lp448
a(lp449
a(lp450
a(lp451
a(lp452
a(lp453
a(lp454
I76
aI441
aI806
aI1171
aI1536
aI1901
aI2266
aI2631
aI2996
aI3361
aa(lp455
a(lp456
a(lp457
a(lp458
a(lp459
a(lp460
a(lp461
I83
aI448
aI813
aI1178
aI1543
aI1908
aI2273
aI2638
aI3003
aI3368
aa(lp462
a(lp463
a(lp464
a(lp465
a(lp466
a(lp467
a(lp468
a(lp469
a(lp470
a(lp471
a(lp472
a(lp473
a(lp474
a(lp475
a(lp476
a(lp477
a(lp478
a(lp479
a(lp480
a(lp481
a(lp482
a(lp483
a(lp484
a(lp485
a(lp486
I108
aI473
aI838
aI1203
aI1568
aI1933
aI2298
aI2663
aI3028
aI3393
aa(lp487
a(lp488
a(lp489
a(lp490
a(lp491
a(lp492
a(lp493
a(lp494
a(lp495
a(lp496
a(lp497
a(lp498
a(lp499
a(lp500
I122
aI487
aI852
aI1217
aI1582
aI1947
aI2312
aI2677
aI3042
aI3407
aa(lp501
a(lp502
I124
aI489
aI854
aI1219
aI1584
aI1949
aI2314
aI2679
aI3044
aI3409
aa(lp503
a(lp504
a(lp505
a(lp506
a(lp507
a(lp508
a(lp509
a(lp510
a(lp511
a(lp512
a(lp513
a(lp514
a(lp515
a(lp516
a(lp517
a(lp518
a(lp519
a(lp520
a(lp521
a(lp522
a(lp523
a(lp524
a(lp525
a(lp526
a(lp527
a(lp528
a(lp529
a(lp530
a(lp531
a(lp532
a(lp533
a(lp534
I156
aI521
aI1251
aI1616
aI1981
aI2346
aI2711
aI3076
aI3441
aa(lp535
a(lp536
a(lp537
a(lp538
a(lp539
a(lp540
a(lp541
a(lp542
a(lp543
a(lp544
a(lp545
a(lp546
a(lp547
a(lp548
I170
aI535
aI900
aI1265
aI1630
aI1995
aI2360
aI2725
aI3090
aI3455
aa(lp549
a(lp550
I172
aI537
aI1267
aI1632
aI1997
aI2362
aI2727
aI3092
aI3457
aa(lp551
a(lp552
a(lp553
a(lp554
a(lp555
a(lp556
a(lp557
a(lp558
a(lp559
a(lp560
a(lp561
a(lp562
a(lp563
a(lp564
a(lp565
a(lp566
a(lp567
a(lp568
a(lp569
a(lp570
a(lp571
a(lp572
a(lp573
I195
aI560
aI925
aI1290
aI1655
aI2020
aI2385
aI2750
aI3115
aI3480
aa(lp574
a(lp575
a(lp576
a(lp577
a(lp578
a(lp579
a(lp580
I202
aI567
aI932
aI1297
aI1662
aI2027
aI2392
aI2757
aI3122
aI3487
aa(lp581
a(lp582
a(lp583
a(lp584
a(lp585
a(lp586
a(lp587
a(lp588
a(lp589
a(lp590
a(lp591
a(lp592
a(lp593
a(lp594
a(lp595
a(lp596
a(lp597
a(lp598
a(lp599
a(lp600
a(lp601
a(lp602
a(lp603
a(lp604
a(lp605
I227
aI592
aI957
aI1322
aI1687
aI2052
aI2417
aI2782
aI3147
aI3512
aa(lp606
a(lp607
a(lp608
a(lp609
a(lp610
a(lp611
a(lp612
I234
aI599
aI964
aI1329
aI1694
aI2059
aI2424
aI2789
aI3154
aI3519
aa(lp613
a(lp614
I236
aI601
aI966
aI1331
aI1696
aI2061
aI2426
aI2791
aI3156
aI3521
aa(lp615
a(lp616
a(lp617
a(lp618
a(lp619
a(lp620
a(lp621
I243
aI608
aI973
aI1338
aI1703
aI2068
aI2433
aI2798
aI3163
aI3528
aa(lp622
a(lp623
a(lp624
a(lp625
a(lp626
a(lp627
a(lp628
a(lp629
a(lp630
a(lp631
a(lp632
a(lp633
a(lp634
a(lp635
a(lp636
a(lp637
I259
aI624
aI989
aI1354
aI1719
aI2084
aI2449
aI2814
aI3179
aI3544
aa(lp638
a(lp639
a(lp640
a(lp641
a(lp642
a(lp643
a(lp644
a(lp645
a(lp646
I268
aI633
aI998
aI1363
aI1728
aI2093
aI2458
aI2823
aI3188
aI3553
aa(lp647
a(lp648
a(lp649
a(lp650
a(lp651
a(lp652
a(lp653
a(lp654
a(lp655
a(lp656
a(lp657
a(lp658
a(lp659
a(lp660
a(lp661
a(lp662
a(lp663
a(lp664
a(lp665
a(lp666
a(lp667
a(lp668
a(lp669
I291
aI656
aI1021
aI1386
aI1751
aI2116
aI2481
aI2846
aI3211
aI3576
aa(lp670
a(lp671
a(lp672
a(lp673
a(lp674
a(lp675
a(lp676
a(lp677
a(lp678
I300
aI665
aI1030
aI1395
aI1760
aI2125
aI2490
aI2855
aI3220
aI3585
aa(lp679
a(lp680
a(lp681
a(lp682
a(lp683
a(lp684
a(lp685
a(lp686
a(lp687
a(lp688
a(lp689
a(lp690
a(lp691
a(lp692
a(lp693
a(lp694
a(lp695
a(lp696
a(lp697
a(lp698
a(lp699
a(lp700
a(lp701
a(lp702
a(lp703
a(lp704
a(lp705
a(lp706
a(lp707
a(lp708
a(lp709
a(lp710
a(lp711
a(lp712
a(lp713
a(lp714
a(lp715
a(lp716
a(lp717
a(lp718
a(lp719
a(lp720
a(lp721
a(lp722
a(lp723
a(lp724
a(lp725
a(lp726
a(lp727
a(lp728
a(lp729
a(lp730
a(lp731
a(lp732
a(lp733
a(lp734
a(lp735
a(lp736
a(lp737
a(lp738
a(lp739
a(lp740
a(lp741
a(lp742
a(lp743
a(lp744
a(lp745
a(lp746
a(lp747
a(lp748
a(lp749
a(lp750
a(lp751
a(lp752
a(lp753
a(lp754
a(lp755
a(lp756
a(lp757
a(lp758
a(lp759
a(lp760
a(lp761
a(lp762
a(lp763
a(lp764
a(lp765
a(lp766
a(lp767
a(lp768
a(lp769
a(lp770
a(lp771
a(lp772
a(lp773
a(lp774
a(lp775
a(lp776
a(lp777
a(lp778
a(lp779
a(lp780
a(lp781
a(lp782
a(lp783
a(lp784
a(lp785
a(lp786
a(lp787
a(lp788
a(lp789
a(lp790
a(lp791
a(lp792
a(lp793
a(lp794
a(lp795
a(lp796
a(lp797
a(lp798
a(lp799
a(lp800
a(lp801
I58
aI423
aI788
aI1153
aI1518
aI1883
aI2248
aI2613
aI2978
aI3343
aa(lp802
a(lp803
a(lp804
a(lp805
a(lp806
a(lp807
a(lp808
a(lp809
a(lp810
a(lp811
a(lp812
a(lp813
a(lp814
a(lp815
a(lp816
a(lp817
a(lp818
a(lp819
I76
aI441
aI806
aI1171
aI1536
aI1901
aI2266
aI2631
aI2996
aI3361
aa(lp820
a(lp821
a(lp822
a(lp823
a(lp824
a(lp825
a(lp826
I83
aI448
aI813
aI1178
aI1543
aI1908
aI2273
aI2638
aI3003
aI3368
aa(lp827
a(lp828
a(lp829
a(lp830
a(lp831
a(lp832
a(lp833
a(lp834
a(lp835
a(lp836
a(lp837
a(lp838
a(lp839
a(lp840
a(lp841
a(lp842
a(lp843
a(lp844
a(lp845
a(lp846
a(lp847
a(lp848
a(lp849
a(lp850
a(lp851
I108
aI473
aI838
aI1203
aI1568
aI1933
aI2298
aI2663
aI3028
aI3393
aa(lp852
a(lp853
a(lp854
a(lp855
a(lp856
a(lp857
a(lp858
a(lp859
a(lp860
a(lp861
a(lp862
a(lp863
a(lp864
a(lp865
I122
aI487
aI852
aI1217
aI1582
aI1947
aI2312
aI2677
aI3042
aI3407
aa(lp866
a(lp867
I124
aI489
aI854
aI1219
aI1584
aI1949
aI2314
aI2679
aI3044
aI3409
aa(lp868
a(lp869
a(lp870
a(lp871
a(lp872
a(lp873
a(lp874
a(lp875
a(lp876
a(lp877
a(lp878
a(lp879
a(lp880
a(lp881
a(lp882
a(lp883
a(lp884
a(lp885
a(lp886
a(lp887
a(lp888
a(lp889
a(lp890
a(lp891
a(lp892
a(lp893
a(lp894
a(lp895
a(lp896
a(lp897
a(lp898
a(lp899
I156
aI521
aI886
aI1251
aI1616
aI1981
aI2346
aI2711
aI3076
aI3441
aa(lp900
a(lp901
a(lp902
a(lp903
a(lp904
a(lp905
a(lp906
a(lp907
a(lp908
a(lp909
a(lp910
a(lp911
a(lp912
a(lp913
I170
aI535
aI900
aI1265
aI1630
aI1995
aI2360
aI2725
aI3090
aI3455
aa(lp914
a(lp915
I172
aI537
aI902
aI1267
aI1632
aI1997
aI2362
aI2727
aI3092
aI3457
aa(lp916
a(lp917
a(lp918
a(lp919
a(lp920
a(lp921
a(lp922
a(lp923
a(lp924
a(lp925
a(lp926
a(lp927
a(lp928
a(lp929
a(lp930
a(lp931
a(lp932
a(lp933
a(lp934
a(lp935
a(lp936
a(lp937
a(lp938
I195
aI560
aI925
aI1290
aI1655
aI2020
aI2385
aI2750
aI3115
aI3480
aa(lp939
a(lp940
a(lp941
a(lp942
a(lp943
a(lp944
a(lp945
I202
aI567
aI932
aI1297
aI1662
aI2027
aI2392
aI2757
aI3122
aI3487
aa(lp946
a(lp947
a(lp948
a(lp949
a(lp950
a(lp951
a(lp952
a(lp953
a(lp954
a(lp955
a(lp956
a(lp957
a(lp958
a(lp959
a(lp960
a(lp961
a(lp962
a(lp963
a(lp964
a(lp965
a(lp966
a(lp967
a(lp968
a(lp969
a(lp970
I227
aI592
aI957
aI1322
aI1687
aI2052
aI2417
aI2782
aI3147
aI3512
aa(lp971
a(lp972
a(lp973
a(lp974
a(lp975
a(lp976
a(lp977
I234
aI599
aI964
aI1329
aI1694
aI2059
aI2424
aI2789
aI3154
aI3519
aa(lp978
a(lp979
I236
aI601
aI966
aI1331
aI1696
aI2061
aI2426
aI2791
aI3156
aI3521
aa(lp980
a(lp981
a(lp982
a(lp983
a(lp984
a(lp985
a(lp986
I243
aI608
aI973
aI1338
aI1703
aI2068
aI2433
aI2798
aI3163
aI3528
aa(lp987
a(lp988
a(lp989
a(lp990
a(lp991
a(lp992
a(lp993
a(lp994
a(lp995
a(lp996
a(lp997
a(lp998
a(lp999
a(lp1000
a(lp1001
a(lp1002
I259
aI624
aI989
aI1354
aI1719
aI2084
aI2449
aI2814
aI3179
aI3544
aa(lp1003
a(lp1004
a(lp1005
a(lp1006
a(lp1007
a(lp1008
a(lp1009
a(lp1010
a(lp1011
I268
aI633
aI998
aI1363
aI1728
aI2093
aI2458
aI2823
aI3188
aI3553
aa(lp1012
a(lp1013
a(lp1014
a(lp1015
a(lp1016
a(lp1017
a(lp1018
a(lp1019
a(lp1020
a(lp1021
a(lp1022
a(lp1023
a(lp1024
a(lp1025
a(lp1026
a(lp1027
a(lp1028
a(lp1029
a(lp1030
a(lp1031
a(lp1032
a(lp1033
a(lp1034
I291
aI656
aI1021
aI1386
aI1751
aI2116
aI2481
aI2846
aI3211
aI3576
aa(lp1035
a(lp1036
a(lp1037
a(lp1038
a(lp1039
a(lp1040
a(lp1041
a(lp1042
a(lp1043
I300
aI665
aI1030
aI1395
aI1760
aI2125
aI2490
aI2855
aI3220
aI3585
aa(lp1044
a(lp1045
a(lp1046
a(lp1047
a(lp1048
a(lp1049
a(lp1050
a(lp1051
a(lp1052
a(lp1053
a(lp1054
a(lp1055
a(lp1056
a(lp1057
a(lp1058
a(lp1059
a(lp1060
a(lp1061
a(lp1062
a(lp1063
a(lp1064
a(lp1065
a(lp1066
a(lp1067
a(lp1068
a(lp1069
a(lp1070
a(lp1071
a(lp1072
a(lp1073
a(lp1074
a(lp1075
a(lp1076
a(lp1077
a(lp1078
a(lp1079
a(lp1080
a(lp1081
a(lp1082
a(lp1083
a(lp1084
a(lp1085
a(lp1086
a(lp1087
a(lp1088
a(lp1089
a(lp1090
a(lp1091
a(lp1092
a(lp1093
a(lp1094
a(lp1095
a(lp1096
a(lp1097
a(lp1098
a(lp1099
a(lp1100
a(lp1101
a(lp1102
a(lp1103
a(lp1104
a(lp1105
a(lp1106
a(lp1107
a(lp1108
a(lp1109
a(lp1110
a(lp1111
a(lp1112
a(lp1113
a(lp1114
a(lp1115
a(lp1116
a(lp1117
a(lp1118
a(lp1119
a(lp1120
a(lp1121
a(lp1122
a(lp1123
a(lp1124
a(lp1125
a(lp1126
a(lp1127
a(lp1128
a(lp1129
a(lp1130
a(lp1131
a(lp1132
a(lp1133
a(lp1134
a(lp1135
a(lp1136
a(lp1137
a(lp1138
a(lp1139
a(lp1140
a(lp1141
a(lp1142
a(lp1143
a(lp1144
a(lp1145
a(lp1146
a(lp1147
a(lp1148
a(lp1149
a(lp1150
a(lp1151
a(lp1152
a(lp1153
a(lp1154
a(lp1155
a(lp1156
a(lp1157
a(lp1158
a(lp1159
a(lp1160
a(lp1161
a(lp1162
a(lp1163
a(lp1164
a(lp1165
a(lp1166
I58
aI423
aI788
aI1153
aI1518
aI1883
aI2248
aI2613
aI2978
aI3343
aa(lp1167
a(lp1168
a(lp1169
a(lp1170
a(lp1171
a(lp1172
a(lp1173
a(lp1174
a(lp1175
a(lp1176
a(lp1177
a(lp1178
a(lp1179
a(lp1180
a(lp1181
a(lp1182
a(lp1183
a(lp1184
I76
aI441
aI806
aI1171
aI1536
aI1901
aI2266
aI2631
aI2996
aI3361
aa(lp1185
a(lp1186
a(lp1187
a(lp1188
a(lp1189
a(lp1190
a(lp1191
I83
aI448
aI813
aI1178
aI1543
aI1908
aI2273
aI2638
aI3003
aI3368
aa(lp1192
a(lp1193
a(lp1194
a(lp1195
a(lp1196
a(lp1197
a(lp1198
a(lp1199
a(lp1200
a(lp1201
a(lp1202
a(lp1203
a(lp1204
a(lp1205
a(lp1206
a(lp1207
a(lp1208
a(lp1209
a(lp1210
a(lp1211
a(lp1212
a(lp1213
a(lp1214
a(lp1215
a(lp1216
I108
aI473
aI838
aI1203
aI1568
aI1933
aI2298
aI2663
aI3028
aI3393
aa(lp1217
a(lp1218
a(lp1219
a(lp1220
a(lp1221
a(lp1222
a(lp1223
a(lp1224
a(lp1225
a(lp1226
a(lp1227
a(lp1228
a(lp1229
a(lp1230
I122
aI487
aI852
aI1217
aI1582
aI1947
aI2312
aI2677
aI3042
aI3407
aa(lp1231
a(lp1232
I124
aI489
aI854
aI1219
aI1584
aI1949
aI2314
aI2679
aI3044
aI3409
aa(lp1233
a(lp1234
a(lp1235
a(lp1236
a(lp1237
a(lp1238
a(lp1239
a(lp1240
a(lp1241
a(lp1242
a(lp1243
a(lp1244
a(lp1245
a(lp1246
a(lp1247
a(lp1248
a(lp1249
a(lp1250
a(lp1251
a(lp1252
a(lp1253
a(lp1254
a(lp1255
a(lp1256
a(lp1257
a(lp1258
a(lp1259
a(lp1260
a(lp1261
a(lp1262
a(lp1263
a(lp1264
I156
aI521
aI1251
aI1616
aI1981
aI2346
aI2711
aI3076
aI3441
aa(lp1265
a(lp1266
a(lp1267
a(lp1268
a(lp1269
a(lp1270
a(lp1271
a(lp1272
a(lp1273
a(lp1274
a(lp1275
a(lp1276
a(lp1277
a(lp1278
I170
aI535
aI900
aI1265
aI1630
aI1995
aI2360
aI2725
aI3090
aI3455
aa(lp1279
a(lp1280
I172
aI537
aI1267
aI1632
aI1997
aI2362
aI2727
aI3092
aI3457
aa(lp1281
a(lp1282
a(lp1283
a(lp1284
a(lp1285
a(lp1286
a(lp1287
a(lp1288
a(lp1289
a(lp1290
a(lp1291
a(lp1292
a(lp1293
a(lp1294
a(lp1295
a(lp1296
a(lp1297
a(lp1298
a(lp1299
a(lp1300
a(lp1301
a(lp1302
a(lp1303
I195
aI560
aI925
aI1290
aI1655
aI2020
aI2385
aI2750
aI3115
aI3480
aa(lp1304
a(lp1305
a(lp1306
a(lp1307
a(lp1308
a(lp1309
a(lp1310
I202
aI567
aI932
aI1297
aI1662
aI2027
aI2392
aI2757
aI3122
aI3487
aa(lp1311
a(lp1312
a(lp1313
a(lp1314
a(lp1315
a(lp1316
a(lp1317
a(lp1318
a(lp1319
a(lp1320
a(lp1321
a(lp1322
a(lp1323
a(lp1324
a(lp1325
a(lp1326
a(lp1327
a(lp1328
a(lp1329
a(lp1330
a(lp1331
a(lp1332
a(lp1333
a(lp1334
a(lp1335
I227
aI592
aI957
aI1322
aI1687
aI2052
aI2417
aI2782
aI3147
aI3512
aa(lp1336
a(lp1337
a(lp1338
a(lp1339
a(lp1340
a(lp1341
a(lp1342
I234
aI599
aI964
aI1329
aI1694
aI2059
aI2424
aI2789
aI3154
aI3519
aa(lp1343
a(lp1344
I236
aI601
aI966
aI1331
aI1696
aI2061
aI2426
aI2791
aI3156
aI3521
aa(lp1345
a(lp1346
a(lp1347
a(lp1348
a(lp1349
a(lp1350
a(lp1351
I243
aI608
aI973
aI1338
aI1703
aI2068
aI2433
aI2798
aI3163
aI3528
aa(lp1352
a(lp1353
a(lp1354
a(lp1355
a(lp1356
a(lp1357
a(lp1358
a(lp1359
a(lp1360
a(lp1361
a(lp1362
a(lp1363
a(lp1364
a(lp1365
a(lp1366
a(lp1367
I259
aI624
aI989
aI1354
aI1719
aI2084
aI2449
aI2814
aI3179
aI3544
aa(lp1368
a(lp1369
a(lp1370
a(lp1371
a(lp1372
a(lp1373
a(lp1374
a(lp1375
a(lp1376
I268
aI633
aI998
aI1363
aI1728
aI2093
aI2458
aI2823
aI3188
aI3553
aa(lp1377
a(lp1378
a(lp1379
a(lp1380
a(lp1381
a(lp1382
a(lp1383
a(lp1384
a(lp1385
a(lp1386
a(lp1387
a(lp1388
a(lp1389
a(lp1390
a(lp1391
a(lp1392
a(lp1393
a(lp1394
a(lp1395
a(lp1396
a(lp1397
a(lp1398
a(lp1399
I291
aI656
aI1021
aI1386
aI1751
aI2116
aI2481
aI2846
aI3211
aI3576
aa(lp1400
a(lp1401
a(lp1402
a(lp1403
a(lp1404
a(lp1405
a(lp1406
a(lp1407
a(lp1408
I300
aI665
aI1030
aI1395
aI1760
aI2125
aI2490
aI2855
aI3220
aI3585
aa(lp1409
a(lp1410
a(lp1411
a(lp1412
a(lp1413
a(lp1414
a(lp1415
a(lp1416
a(lp1417
a(lp1418
a(lp1419
a(lp1420
a(lp1421
a(lp1422
a(lp1423
a(lp1424
a(lp1425
a(lp1426
a(lp1427
a(lp1428
a(lp1429
a(lp1430
a(lp1431
a(lp1432
a(lp1433
a(lp1434
a(lp1435
a(lp1436
a(lp1437
a(lp1438
a(lp1439
a(lp1440
a(lp1441
a(lp1442
a(lp1443
a(lp1444
a(lp1445
a(lp1446
a(lp1447
a(lp1448
a(lp1449
a(lp1450
a(lp1451
a(lp1452
a(lp1453
a(lp1454
a(lp1455
a(lp1456
a(lp1457
a(lp1458
a(lp1459
a(lp1460
a(lp1461
a(lp1462
a(lp1463
a(lp1464
a(lp1465
a(lp1466
a(lp1467
a(lp1468
a(lp1469
a(lp1470
a(lp1471
a(lp1472
a(lp1473
a(lp1474
a(lp1475
a(lp1476
a(lp1477
a(lp1478
a(lp1479
a(lp1480
a(lp1481
a(lp1482
a(lp1483
a(lp1484
a(lp1485
a(lp1486
a(lp1487
a(lp1488
a(lp1489
a(lp1490
a(lp1491
a(lp1492
a(lp1493
a(lp1494
a(lp1495
a(lp1496
a(lp1497
a(lp1498
a(lp1499
a(lp1500
a(lp1501
a(lp1502
a(lp1503
a(lp1504
a(lp1505
a(lp1506
a(lp1507
a(lp1508
a(lp1509
a(lp1510
a(lp1511
a(lp1512
a(lp1513
a(lp1514
a(lp1515
a(lp1516
a(lp1517
a(lp1518
a(lp1519
a(lp1520
a(lp1521
a(lp1522
a(lp1523
a(lp1524
a(lp1525
a(lp1526
a(lp1527
a(lp1528
a(lp1529
a(lp1530
a(lp1531
I58
aI423
aI788
aI1153
aI1518
aI1883
aI2248
aI2613
aI2978
aI3343
aa(lp1532
a(lp1533
a(lp1534
a(lp1535
a(lp1536
a(lp1537
a(lp1538
a(lp1539
a(lp1540
a(lp1541
a(lp1542
a(lp1543
a(lp1544
a(lp1545
a(lp1546
a(lp1547
a(lp1548
a(lp1549
I76
aI441
aI806
aI1171
aI1536
aI1901
aI2266
aI2631
aI2996
aI3361
aa(lp1550
a(lp1551
a(lp1552
a(lp1553
a(lp1554
a(lp1555
a(lp1556
I83
aI448
aI813
aI1178
aI1543
aI1908
aI2273
aI2638
aI3003
aI3368
aa(lp1557
a(lp1558
a(lp1559
a(lp1560
a(lp1561
a(lp1562
a(lp1563
a(lp1564
a(lp1565
a(lp1566
a(lp1567
a(lp1568
a(lp1569
a(lp1570
a(lp1571
a(lp1572
a(lp1573
a(lp1574
a(lp1575
a(lp1576
a(lp1577
a(lp1578
a(lp1579
a(lp1580
a(lp1581
I108
aI473
aI838
aI1203
aI1568
aI1933
aI2298
aI2663
aI3028
aI3393
aa(lp1582
a(lp1583
a(lp1584
a(lp1585
a(lp1586
a(lp1587
a(lp1588
a(lp1589
a(lp1590
a(lp1591
a(lp1592
a(lp1593
a(lp1594
a(lp1595
I122
aI487
aI852
aI1217
aI1582
aI1947
aI2312
aI2677
aI3042
aI3407
aa(lp1596
a(lp1597
I124
aI489
aI854
aI1219
aI1584
aI1949
aI2314
aI2679
aI3044
aI3409
aa(lp1598
a(lp1599
a(lp1600
a(lp1601
a(lp1602
a(lp1603
a(lp1604
a(lp1605
a(lp1606
a(lp1607
a(lp1608
a(lp1609
a(lp1610
a(lp1611
a(lp1612
a(lp1613
a(lp1614
a(lp1615
a(lp1616
a(lp1617
a(lp1618
a(lp1619
a(lp1620
a(lp1621
a(lp1622
a(lp1623
a(lp1624
a(lp1625
a(lp1626
a(lp1627
a(lp1628
a(lp1629
I156
aI521
aI1251
aI1616
aI1981
aI2346
aI2711
aI3076
aI3441
aa(lp1630
a(lp1631
a(lp1632
a(lp1633
a(lp1634
a(lp1635
a(lp1636
a(lp1637
a(lp1638
a(lp1639
a(lp1640
a(lp1641
a(lp1642
a(lp1643
I170
aI535
aI900
aI1265
aI1630
aI1995
aI2360
aI2725
aI3090
aI3455
aa(lp1644
a(lp1645
I172
aI537
aI1267
aI1632
aI1997
aI2362
aI2727
aI3092
aI3457
aa(lp1646
a(lp1647
a(lp1648
a(lp1649
a(lp1650
a(lp1651
a(lp1652
a(lp1653
a(lp1654
a(lp1655
a(lp1656
a(lp1657
a(lp1658
a(lp1659
a(lp1660
a(lp1661
a(lp1662
a(lp1663
a(lp1664
a(lp1665
a(lp1666
a(lp1667
a(lp1668
I195
aI560
aI925
aI1290
aI1655
aI2020
aI2385
aI2750
aI3115
aI3480
aa(lp1669
a(lp1670
a(lp1671
a(lp1672
a(lp1673
a(lp1674
a(lp1675
I202
aI567
aI932
aI1297
aI1662
aI2027
aI2392
aI2757
aI3122
aI3487
aa(lp1676
a(lp1677
a(lp1678
a(lp1679
a(lp1680
a(lp1681
a(lp1682
a(lp1683
a(lp1684
a(lp1685
a(lp1686
a(lp1687
a(lp1688
a(lp1689
a(lp1690
a(lp1691
a(lp1692
a(lp1693
a(lp1694
a(lp1695
a(lp1696
a(lp1697
a(lp1698
a(lp1699
a(lp1700
I227
aI592
aI957
aI1322
aI1687
aI2052
aI2417
aI2782
aI3147
aI3512
aa(lp1701
a(lp1702
a(lp1703
a(lp1704
a(lp1705
a(lp1706
a(lp1707
I234
aI599
aI964
aI1329
aI1694
aI2059
aI2424
aI2789
aI3154
aI3519
aa(lp1708
a(lp1709
I236
aI601
aI966
aI1331
aI1696
aI2061
aI2426
aI2791
aI3156
aI3521
aa(lp1710
a(lp1711
a(lp1712
a(lp1713
a(lp1714
a(lp1715
a(lp1716
I243
aI608
aI973
aI1338
aI1703
aI2068
aI2433
aI2798
aI3163
aI3528
aa(lp1717
a(lp1718
a(lp1719
a(lp1720
a(lp1721
a(lp1722
a(lp1723
a(lp1724
a(lp1725
a(lp1726
a(lp1727
a(lp1728
a(lp1729
a(lp1730
a(lp1731
a(lp1732
I259
aI624
aI989
aI1354
aI1719
aI2084
aI2449
aI2814
aI3179
aI3544
aa(lp1733
a(lp1734
a(lp1735
a(lp1736
a(lp1737
a(lp1738
a(lp1739
a(lp1740
a(lp1741
I268
aI633
aI998
aI1363
aI1728
aI2093
aI2458
aI2823
aI3188
aI3553
aa(lp1742
a(lp1743
a(lp1744
a(lp1745
a(lp1746
a(lp1747
a(lp1748
a(lp1749
a(lp1750
a(lp1751
a(lp1752
a(lp1753
a(lp1754
a(lp1755
a(lp1756
a(lp1757
a(lp1758
a(lp1759
a(lp1760
a(lp1761
a(lp1762
a(lp1763
a(lp1764
I291
aI656
aI1021
aI1386
aI1751
aI2116
aI2481
aI2846
aI3211
aI3576
aa(lp1765
a(lp1766
a(lp1767
a(lp1768
a(lp1769
a(lp1770
a(lp1771
a(lp1772
a(lp1773
I300
aI665
aI1030
aI1395
aI1760
aI2125
aI2490
aI2855
aI3220
aI3585
aa(lp1774
a(lp1775
a(lp1776
a(lp1777
a(lp1778
a(lp1779
a(lp1780
a(lp1781
a(lp1782
a(lp1783
a(lp1784
a(lp1785
a(lp1786
a(lp1787
a(lp1788
a(lp1789
a(lp1790
a(lp1791
a(lp1792
a(lp1793
a(lp1794
a(lp1795
a(lp1796
a(lp1797
a(lp1798
a(lp1799
a(lp1800
a(lp1801
a(lp1802
a(lp1803
a(lp1804
a(lp1805
a(lp1806
a(lp1807
a(lp1808
a(lp1809
a(lp1810
a(lp1811
a(lp1812
a(lp1813
a(lp1814
a(lp1815
a(lp1816
a(lp1817
a(lp1818
a(lp1819
a(lp1820
a(lp1821
a(lp1822
a(lp1823
a(lp1824
a(lp1825
a(lp1826
a(lp1827
a(lp1828
a(lp1829
a(lp1830
a(lp1831
a(lp1832
a(lp1833
a(lp1834
a(lp1835
a(lp1836
a(lp1837
a(lp1838
a(lp1839
a(lp1840
a(lp1841
a(lp1842
a(lp1843
a(lp1844
a(lp1845
a(lp1846
a(lp1847
a(lp1848
a(lp1849
a(lp1850
a(lp1851
a(lp1852
a(lp1853
a(lp1854
a(lp1855
a(lp1856
a(lp1857
a(lp1858
a(lp1859
a(lp1860
a(lp1861
a(lp1862
a(lp1863
a(lp1864
a(lp1865
a(lp1866
a(lp1867
a(lp1868
a(lp1869
a(lp1870
a(lp1871
a(lp1872
a(lp1873
a(lp1874
a(lp1875
a(lp1876
a(lp1877
a(lp1878
a(lp1879
a(lp1880
a(lp1881
a(lp1882
a(lp1883
a(lp1884
a(lp1885
a(lp1886
a(lp1887
a(lp1888
a(lp1889
a(lp1890
a(lp1891
a(lp1892
a(lp1893
a(lp1894
a(lp1895
a(lp1896
I58
aI423
aI788
aI1153
aI1518
aI1883
aI2248
aI2613
aI2978
aI3343
aa(lp1897
a(lp1898
a(lp1899
a(lp1900
a(lp1901
a(lp1902
a(lp1903
a(lp1904
a(lp1905
a(lp1906
a(lp1907
a(lp1908
a(lp1909
a(lp1910
a(lp1911
a(lp1912
a(lp1913
a(lp1914
I76
aI441
aI806
aI1171
aI1536
aI1901
aI2266
aI2631
aI2996
aI3361
aa(lp1915
a(lp1916
a(lp1917
a(lp1918
a(lp1919
a(lp1920
a(lp1921
I83
aI448
aI813
aI1178
aI1543
aI1908
aI2273
aI2638
aI3003
aI3368
aa(lp1922
a(lp1923
a(lp1924
a(lp1925
a(lp1926
a(lp1927
a(lp1928
a(lp1929
a(lp1930
a(lp1931
a(lp1932
a(lp1933
a(lp1934
a(lp1935
a(lp1936
a(lp1937
a(lp1938
a(lp1939
a(lp1940
a(lp1941
a(lp1942
a(lp1943
a(lp1944
a(lp1945
a(lp1946
I108
aI473
aI838
aI1203
aI1568
aI1933
aI2298
aI2663
aI3028
aI3393
aa(lp1947
a(lp1948
a(lp1949
a(lp1950
a(lp1951
a(lp1952
a(lp1953
a(lp1954
a(lp1955
a(lp1956
a(lp1957
a(lp1958
a(lp1959
a(lp1960
I122
aI487
aI852
aI1217
aI1582
aI1947
aI2312
aI2677
aI3042
aI3407
aa(lp1961
a(lp1962
I124
aI489
aI854
aI1219
aI1584
aI1949
aI2314
aI2679
aI3044
aI3409
aa(lp1963
a(lp1964
a(lp1965
a(lp1966
a(lp1967
a(lp1968
a(lp1969
a(lp1970
a(lp1971
a(lp1972
a(lp1973
a(lp1974
a(lp1975
a(lp1976
a(lp1977
a(lp1978
a(lp1979
a(lp1980
a(lp1981
a(lp1982
a(lp1983
a(lp1984
a(lp1985
a(lp1986
a(lp1987
a(lp1988
a(lp1989
a(lp1990
a(lp1991
a(lp1992
a(lp1993
a(lp1994
I156
aI521
aI1251
aI1616
aI1981
aI2346
aI2711
aI3076
aI3441
aa(lp1995
a(lp1996
a(lp1997
a(lp1998
a(lp1999
a(lp2000
a(lp2001
a(lp2002
a(lp2003
a(lp2004
a(lp2005
a(lp2006
a(lp2007
a(lp2008
I170
aI535
aI900
aI1265
aI1630
aI1995
aI2360
aI2725
aI3090
aI3455
aa(lp2009
a(lp2010
I172
aI537
aI1267
aI1632
aI1997
aI2362
aI2727
aI3092
aI3457
aa(lp2011
a(lp2012
a(lp2013
a(lp2014
a(lp2015
a(lp2016
a(lp2017
a(lp2018
a(lp2019
a(lp2020
a(lp2021
a(lp2022
a(lp2023
a(lp2024
a(lp2025
a(lp2026
a(lp2027
a(lp2028
a(lp2029
a(lp2030
a(lp2031
a(lp2032
a(lp2033
I195
aI560
aI925
aI1290
aI1655
aI2020
aI2385
aI2750
aI3115
aI3480
aa(lp2034
a(lp2035
a(lp2036
a(lp2037
a(lp2038
a(lp2039
a(lp2040
I202
aI567
aI932
aI1297
aI1662
aI2027
aI2392
aI2757
aI3122
aI3487
aa(lp2041
a(lp2042
a(lp2043
a(lp2044
a(lp2045
a(lp2046
a(lp2047
a(lp2048
a(lp2049
a(lp2050
a(lp2051
a(lp2052
a(lp2053
a(lp2054
a(lp2055
a(lp2056
a(lp2057
a(lp2058
a(lp2059
a(lp2060
a(lp2061
a(lp2062
a(lp2063
a(lp2064
a(lp2065
I227
aI592
aI957
aI1322
aI1687
aI2052
aI2417
aI2782
aI3147
aI3512
aa(lp2066
a(lp2067
a(lp2068
a(lp2069
a(lp2070
a(lp2071
a(lp2072
I234
aI599
aI964
aI1329
aI1694
aI2059
aI2424
aI2789
aI3154
aI3519
aa(lp2073
a(lp2074
I236
aI601
aI966
aI1331
aI1696
aI2061
aI2426
aI2791
aI3156
aI3521
aa(lp2075
a(lp2076
a(lp2077
a(lp2078
a(lp2079
a(lp2080
a(lp2081
I243
aI608
aI973
aI1338
aI1703
aI2068
aI2433
aI2798
aI3163
aI3528
aa(lp2082
a(lp2083
a(lp2084
a(lp2085
a(lp2086
a(lp2087
a(lp2088
a(lp2089
a(lp2090
a(lp2091
a(lp2092
a(lp2093
a(lp2094
a(lp2095
a(lp2096
a(lp2097
I259
aI624
aI989
aI1354
aI1719
aI2084
aI2449
aI2814
aI3179
aI3544
aa(lp2098
a(lp2099
a(lp2100
a(lp2101
a(lp2102
a(lp2103
a(lp2104
a(lp2105
a(lp2106
I268
aI633
aI998
aI1363
aI1728
aI2093
aI2458
aI2823
aI3188
aI3553
aa(lp2107
a(lp2108
a(lp2109
a(lp2110
a(lp2111
a(lp2112
a(lp2113
a(lp2114
a(lp2115
a(lp2116
a(lp2117
a(lp2118
a(lp2119
a(lp2120
a(lp2121
a(lp2122
a(lp2123
a(lp2124
a(lp2125
a(lp2126
a(lp2127
a(lp2128
a(lp2129
I291
aI656
aI1021
aI1386
aI1751
aI2116
aI2481
aI2846
aI3211
aI3576
aa(lp2130
a(lp2131
a(lp2132
a(lp2133
a(lp2134
a(lp2135
a(lp2136
a(lp2137
a(lp2138
I300
aI665
aI1030
aI1395
aI1760
aI2125
aI2490
aI2855
aI3220
aI3585
aa(lp2139
a(lp2140
a(lp2141
a(lp2142
a(lp2143
a(lp2144
a(lp2145
a(lp2146
a(lp2147
a(lp2148
a(lp2149
a(lp2150
a(lp2151
a(lp2152
a(lp2153
a(lp2154
a(lp2155
a(lp2156
a(lp2157
a(lp2158
a(lp2159
a(lp2160
a(lp2161
a(lp2162
a(lp2163
a(lp2164
a(lp2165
a(lp2166
a(lp2167
a(lp2168
a(lp2169
a(lp2170
a(lp2171
a(lp2172
a(lp2173
a(lp2174
a(lp2175
a(lp2176
a(lp2177
a(lp2178
a(lp2179
a(lp2180
a(lp2181
a(lp2182
a(lp2183
a(lp2184
a(lp2185
a(lp2186
a(lp2187
a(lp2188
a(lp2189
a(lp2190
a(lp2191
a(lp2192
a(lp2193
a(lp2194
a(lp2195
a(lp2196
a(lp2197
a(lp2198
a(lp2199
a(lp2200
a(lp2201
a(lp2202
a(lp2203
a(lp2204
a(lp2205
a(lp2206
a(lp2207
a(lp2208
a(lp2209
a(lp2210
a(lp2211
a(lp2212
a(lp2213
a(lp2214
a(lp2215
a(lp2216
a(lp2217
a(lp2218
a(lp2219
a(lp2220
a(lp2221
a(lp2222
a(lp2223
a(lp2224
a(lp2225
a(lp2226
a(lp2227
a(lp2228
a(lp2229
a(lp2230
a(lp2231
a(lp2232
a(lp2233
a(lp2234
a(lp2235
a(lp2236
a(lp2237
a(lp2238
a(lp2239
a(lp2240
a(lp2241
a(lp2242
a(lp2243
a(lp2244
a(lp2245
a(lp2246
a(lp2247
a(lp2248
a(lp2249
a(lp2250
a(lp2251
a(lp2252
a(lp2253
a(lp2254
a(lp2255
a(lp2256
a(lp2257
a(lp2258
a(lp2259
a(lp2260
a(lp2261
I58
aI423
aI788
aI1153
aI1518
aI1883
aI2248
aI2613
aI2978
aI3343
aa(lp2262
a(lp2263
a(lp2264
a(lp2265
a(lp2266
a(lp2267
a(lp2268
a(lp2269
a(lp2270
a(lp2271
a(lp2272
a(lp2273
a(lp2274
a(lp2275
a(lp2276
a(lp2277
a(lp2278
a(lp2279
I76
aI441
aI806
aI1171
aI1536
aI1901
aI2266
aI2631
aI2996
aI3361
aa(lp2280
a(lp2281
a(lp2282
a(lp2283
a(lp2284
a(lp2285
a(lp2286
I83
aI448
aI813
aI1178
aI1543
aI1908
aI2273
aI2638
aI3003
aI3368
aa(lp2287
a(lp2288
a(lp2289
a(lp2290
a(lp2291
a(lp2292
a(lp2293
a(lp2294
a(lp2295
a(lp2296
a(lp2297
a(lp2298
a(lp2299
a(lp2300
a(lp2301
a(lp2302
a(lp2303
a(lp2304
a(lp2305
a(lp2306
a(lp2307
a(lp2308
a(lp2309
a(lp2310
a(lp2311
I108
aI473
aI838
aI1203
aI1568
aI1933
aI2298
aI2663
aI3028
aI3393
aa(lp2312
a(lp2313
a(lp2314
a(lp2315
a(lp2316
a(lp2317
a(lp2318
a(lp2319
a(lp2320
a(lp2321
a(lp2322
a(lp2323
a(lp2324
a(lp2325
I122
aI487
aI852
aI1217
aI1582
aI1947
aI2312
aI2677
aI3042
aI3407
aa(lp2326
a(lp2327
I124
aI489
aI854
aI1219
aI1584
aI1949
aI2314
aI2679
aI3044
aI3409
aa(lp2328
a(lp2329
a(lp2330
a(lp2331
a(lp2332
a(lp2333
a(lp2334
a(lp2335
a(lp2336
a(lp2337
a(lp2338
a(lp2339
a(lp2340
a(lp2341
a(lp2342
a(lp2343
a(lp2344
a(lp2345
a(lp2346
a(lp2347
a(lp2348
a(lp2349
a(lp2350
a(lp2351
a(lp2352
a(lp2353
a(lp2354
a(lp2355
a(lp2356
a(lp2357
a(lp2358
a(lp2359
I156
aI521
aI1251
aI1616
aI1981
aI2346
aI2711
aI3076
aI3441
aa(lp2360
a(lp2361
a(lp2362
a(lp2363
a(lp2364
a(lp2365
a(lp2366
a(lp2367
a(lp2368
a(lp2369
a(lp2370
a(lp2371
a(lp2372
a(lp2373
I170
aI535
aI900
aI1265
aI1630
aI1995
aI2360
aI2725
aI3090
aI3455
aa(lp2374
a(lp2375
I172
aI537
aI1267
aI1632
aI1997
aI2362
aI2727
aI3092
aI3457
aa(lp2376
a(lp2377
a(lp2378
a(lp2379
a(lp2380
a(lp2381
a(lp2382
a(lp2383
a(lp2384
a(lp2385
a(lp2386
a(lp2387
a(lp2388
a(lp2389
a(lp2390
a(lp2391
a(lp2392
a(lp2393
a(lp2394
a(lp2395
a(lp2396
a(lp2397
a(lp2398
I195
aI560
aI925
aI1290
aI1655
aI2020
aI2385
aI2750
aI3115
aI3480
aa(lp2399
a(lp2400
a(lp2401
a(lp2402
a(lp2403
a(lp2404
a(lp2405
I202
aI567
aI932
aI1297
aI1662
aI2027
aI2392
aI2757
aI3122
aI3487
aa(lp2406
a(lp2407
a(lp2408
a(lp2409
a(lp2410
a(lp2411
a(lp2412
a(lp2413
a(lp2414
a(lp2415
a(lp2416
a(lp2417
a(lp2418
a(lp2419
a(lp2420
a(lp2421
a(lp2422
a(lp2423
a(lp2424
a(lp2425
a(lp2426
a(lp2427
a(lp2428
a(lp2429
a(lp2430
I227
aI592
aI957
aI1322
aI1687
aI2052
aI2417
aI2782
aI3147
aI3512
aa(lp2431
a(lp2432
a(lp2433
a(lp2434
a(lp2435
a(lp2436
a(lp2437
I234
aI599
aI964
aI1329
aI1694
aI2059
aI2424
aI2789
aI3154
aI3519
aa(lp2438
a(lp2439
I236
aI601
aI966
aI1331
aI1696
aI2061
aI2426
aI2791
aI3156
aI3521
aa(lp2440
a(lp2441
a(lp2442
a(lp2443
a(lp2444
a(lp2445
a(lp2446
I243
aI608
aI973
aI1338
aI1703
aI2068
aI2433
aI2798
aI3163
aI3528
aa(lp2447
a(lp2448
a(lp2449
a(lp2450
a(lp2451
a(lp2452
a(lp2453
a(lp2454
a(lp2455
a(lp2456
a(lp2457
a(lp2458
a(lp2459
a(lp2460
a(lp2461
a(lp2462
I259
aI624
aI989
aI1354
aI1719
aI2084
aI2449
aI2814
aI3179
aI3544
aa(lp2463
a(lp2464
a(lp2465
a(lp2466
a(lp2467
a(lp2468
a(lp2469
a(lp2470
a(lp2471
I268
aI633
aI998
aI1363
aI1728
aI2093
aI2458
aI2823
aI3188
aI3553
aa(lp2472
a(lp2473
a(lp2474
a(lp2475
a(lp2476
a(lp2477
a(lp2478
a(lp2479
a(lp2480
a(lp2481
a(lp2482
a(lp2483
a(lp2484
a(lp2485
a(lp2486
a(lp2487
a(lp2488
a(lp2489
a(lp2490
a(lp2491
a(lp2492
a(lp2493
a(lp2494
I291
aI656
aI1021
aI1386
aI1751
aI2116
aI2481
aI2846
aI3211
aI3576
aa(lp2495
a(lp2496
a(lp2497
a(lp2498
a(lp2499
a(lp2500
a(lp2501
a(lp2502
a(lp2503
I300
aI665
aI1030
aI1395
aI1760
aI2125
aI2490
aI2855
aI3220
aI3585
aa(lp2504
a(lp2505
a(lp2506
a(lp2507
a(lp2508
a(lp2509
a(lp2510
a(lp2511
a(lp2512
a(lp2513
a(lp2514
a(lp2515
a(lp2516
a(lp2517
a(lp2518
a(lp2519
a(lp2520
a(lp2521
a(lp2522
a(lp2523
a(lp2524
a(lp2525
a(lp2526
a(lp2527
a(lp2528
a(lp2529
a(lp2530
a(lp2531
a(lp2532
a(lp2533
a(lp2534
a(lp2535
a(lp2536
a(lp2537
a(lp2538
a(lp2539
a(lp2540
a(lp2541
a(lp2542
a(lp2543
a(lp2544
a(lp2545
a(lp2546
a(lp2547
a(lp2548
a(lp2549
a(lp2550
a(lp2551
a(lp2552
a(lp2553
a(lp2554
a(lp2555
a(lp2556
a(lp2557
a(lp2558
a(lp2559
a(lp2560
a(lp2561
a(lp2562
a(lp2563
a(lp2564
a(lp2565
a(lp2566
a(lp2567
a(lp2568
a(lp2569
a(lp2570
a(lp2571
a(lp2572
a(lp2573
a(lp2574
a(lp2575
a(lp2576
a(lp2577
a(lp2578
a(lp2579
a(lp2580
a(lp2581
a(lp2582
a(lp2583
a(lp2584
a(lp2585
a(lp2586
a(lp2587
a(lp2588
a(lp2589
a(lp2590
a(lp2591
a(lp2592
a(lp2593
a(lp2594
a(lp2595
a(lp2596
a(lp2597
a(lp2598
a(lp2599
a(lp2600
a(lp2601
a(lp2602
a(lp2603
a(lp2604
a(lp2605
a(lp2606
a(lp2607
a(lp2608
a(lp2609
a(lp2610
a(lp2611
a(lp2612
a(lp2613
a(lp2614
a(lp2615
a(lp2616
a(lp2617
a(lp2618
a(lp2619
a(lp2620
a(lp2621
a(lp2622
a(lp2623
a(lp2624
a(lp2625
a(lp2626
I58
aI423
aI788
aI1153
aI1518
aI1883
aI2248
aI2613
aI2978
aI3343
aa(lp2627
a(lp2628
a(lp2629
a(lp2630
a(lp2631
a(lp2632
a(lp2633
a(lp2634
a(lp2635
a(lp2636
a(lp2637
a(lp2638
a(lp2639
a(lp2640
a(lp2641
a(lp2642
a(lp2643
a(lp2644
I76
aI441
aI806
aI1171
aI1536
aI1901
aI2266
aI2631
aI2996
aI3361
aa(lp2645
a(lp2646
a(lp2647
a(lp2648
a(lp2649
a(lp2650
a(lp2651
I83
aI448
aI813
aI1178
aI1543
aI1908
aI2273
aI2638
aI3003
aI3368
aa(lp2652
a(lp2653
a(lp2654
a(lp2655
a(lp2656
a(lp2657
a(lp2658
a(lp2659
a(lp2660
a(lp2661
a(lp2662
a(lp2663
a(lp2664
a(lp2665
a(lp2666
a(lp2667
a(lp2668
a(lp2669
a(lp2670
a(lp2671
a(lp2672
a(lp2673
a(lp2674
a(lp2675
a(lp2676
I108
aI473
aI838
aI1203
aI1568
aI1933
aI2298
aI2663
aI3028
aI3393
aa(lp2677
a(lp2678
a(lp2679
a(lp2680
a(lp2681
a(lp2682
a(lp2683
a(lp2684
a(lp2685
a(lp2686
a(lp2687
a(lp2688
a(lp2689
a(lp2690
I122
aI487
aI852
aI1217
aI1582
aI1947
aI2312
aI2677
aI3042
aI3407
aa(lp2691
a(lp2692
I124
aI489
aI854
aI1219
aI1584
aI1949
aI2314
aI2679
aI3044
aI3409
aa(lp2693
a(lp2694
a(lp2695
a(lp2696
a(lp2697
a(lp2698
a(lp2699
a(lp2700
a(lp2701
a(lp2702
a(lp2703
a(lp2704
a(lp2705
a(lp2706
a(lp2707
a(lp2708
a(lp2709
a(lp2710
a(lp2711
a(lp2712
a(lp2713
a(lp2714
a(lp2715
a(lp2716
a(lp2717
a(lp2718
a(lp2719
a(lp2720
a(lp2721
a(lp2722
a(lp2723
a(lp2724
I156
aI521
aI1251
aI1616
aI1981
aI2346
aI2711
aI3076
aI3441
aa(lp2725
a(lp2726
a(lp2727
a(lp2728
a(lp2729
a(lp2730
a(lp2731
a(lp2732
a(lp2733
a(lp2734
a(lp2735
a(lp2736
a(lp2737
a(lp2738
I170
aI535
aI900
aI1265
aI1630
aI1995
aI2360
aI2725
aI3090
aI3455
aa(lp2739
a(lp2740
I172
aI537
aI1267
aI1632
aI1997
aI2362
aI2727
aI3092
aI3457
aa(lp2741
a(lp2742
a(lp2743
a(lp2744
a(lp2745
a(lp2746
a(lp2747
a(lp2748
a(lp2749
a(lp2750
a(lp2751
a(lp2752
a(lp2753
a(lp2754
a(lp2755
a(lp2756
a(lp2757
a(lp2758
a(lp2759
a(lp2760
a(lp2761
a(lp2762
a(lp2763
I195
aI560
aI925
aI1290
aI1655
aI2020
aI2385
aI2750
aI3115
aI3480
aa(lp2764
a(lp2765
a(lp2766
a(lp2767
a(lp2768
a(lp2769
a(lp2770
I202
aI567
aI932
aI1297
aI1662
aI2027
aI2392
aI2757
aI3122
aI3487
aa(lp2771
a(lp2772
a(lp2773
a(lp2774
a(lp2775
a(lp2776
a(lp2777
a(lp2778
a(lp2779
a(lp2780
a(lp2781
a(lp2782
a(lp2783
a(lp2784
a(lp2785
a(lp2786
a(lp2787
a(lp2788
a(lp2789
a(lp2790
a(lp2791
a(lp2792
a(lp2793
a(lp2794
a(lp2795
I227
aI592
aI957
aI1322
aI1687
aI2052
aI2417
aI2782
aI3147
aI3512
aa(lp2796
a(lp2797
a(lp2798
a(lp2799
a(lp2800
a(lp2801
a(lp2802
I234
aI599
aI964
aI1329
aI1694
aI2059
aI2424
aI2789
aI3154
aI3519
aa(lp2803
a(lp2804
I236
aI601
aI966
aI1331
aI1696
aI2061
aI2426
aI2791
aI3156
aI3521
aa(lp2805
a(lp2806
a(lp2807
a(lp2808
a(lp2809
a(lp2810
a(lp2811
I243
aI608
aI973
aI1338
aI1703
aI2068
aI2433
aI2798
aI3163
aI3528
aa(lp2812
a(lp2813
a(lp2814
a(lp2815
a(lp2816
a(lp2817
a(lp2818
a(lp2819
a(lp2820
a(lp2821
a(lp2822
a(lp2823
a(lp2824
a(lp2825
a(lp2826
a(lp2827
I259
aI624
aI989
aI1354
aI1719
aI2084
aI2449
aI2814
aI3179
aI3544
aa(lp2828
a(lp2829
a(lp2830
a(lp2831
a(lp2832
a(lp2833
a(lp2834
a(lp2835
a(lp2836
I268
aI633
aI998
aI1363
aI1728
aI2093
aI2458
aI2823
aI3188
aI3553
aa(lp2837
a(lp2838
a(lp2839
a(lp2840
a(lp2841
a(lp2842
a(lp2843
a(lp2844
a(lp2845
a(lp2846
a(lp2847
a(lp2848
a(lp2849
a(lp2850
a(lp2851
a(lp2852
a(lp2853
a(lp2854
a(lp2855
a(lp2856
a(lp2857
a(lp2858
a(lp2859
I291
aI656
aI1021
aI1386
aI1751
aI2116
aI2481
aI2846
aI3211
aI3576
aa(lp2860
a(lp2861
a(lp2862
a(lp2863
a(lp2864
a(lp2865
a(lp2866
a(lp2867
a(lp2868
I300
aI665
aI1030
aI1395
aI1760
aI2125
aI2490
aI2855
aI3220
aI3585
aa(lp2869
a(lp2870
a(lp2871
a(lp2872
a(lp2873
a(lp2874
a(lp2875
a(lp2876
a(lp2877
a(lp2878
a(lp2879
a(lp2880
a(lp2881
a(lp2882
a(lp2883
a(lp2884
a(lp2885
a(lp2886
a(lp2887
a(lp2888
a(lp2889
a(lp2890
a(lp2891
a(lp2892
a(lp2893
a(lp2894
a(lp2895
a(lp2896
a(lp2897
a(lp2898
a(lp2899
a(lp2900
a(lp2901
a(lp2902
a(lp2903
a(lp2904
a(lp2905
a(lp2906
a(lp2907
a(lp2908
a(lp2909
a(lp2910
a(lp2911
a(lp2912
a(lp2913
a(lp2914
a(lp2915
a(lp2916
a(lp2917
a(lp2918
a(lp2919
a(lp2920
a(lp2921
a(lp2922
a(lp2923
a(lp2924
a(lp2925
a(lp2926
a(lp2927
a(lp2928
a(lp2929
a(lp2930
a(lp2931
a(lp2932
a(lp2933
a(lp2934
a(lp2935
a(lp2936
a(lp2937
a(lp2938
a(lp2939
a(lp2940
a(lp2941
a(lp2942
a(lp2943
a(lp2944
a(lp2945
a(lp2946
a(lp2947
a(lp2948
a(lp2949
a(lp2950
a(lp2951
a(lp2952
a(lp2953
a(lp2954
a(lp2955
a(lp2956
a(lp2957
a(lp2958
a(lp2959
a(lp2960
a(lp2961
a(lp2962
a(lp2963
a(lp2964
a(lp2965
a(lp2966
a(lp2967
a(lp2968
a(lp2969
a(lp2970
a(lp2971
a(lp2972
a(lp2973
a(lp2974
a(lp2975
a(lp2976
a(lp2977
a(lp2978
a(lp2979
a(lp2980
a(lp2981
a(lp2982
a(lp2983
a(lp2984
a(lp2985
a(lp2986
a(lp2987
a(lp2988
a(lp2989
a(lp2990
a(lp2991
I58
aI423
aI788
aI1153
aI1518
aI1883
aI2248
aI2613
aI2978
aI3343
aa(lp2992
a(lp2993
a(lp2994
a(lp2995
a(lp2996
a(lp2997
a(lp2998
a(lp2999
a(lp3000
a(lp3001
a(lp3002
a(lp3003
a(lp3004
a(lp3005
a(lp3006
a(lp3007
a(lp3008
a(lp3009
I76
aI441
aI806
aI1171
aI1536
aI1901
aI2266
aI2631
aI2996
aI3361
aa(lp3010
a(lp3011
a(lp3012
a(lp3013
a(lp3014
a(lp3015
a(lp3016
I83
aI448
aI813
aI1178
aI1543
aI1908
aI2273
aI2638
aI3003
aI3368
aa(lp3017
a(lp3018
a(lp3019
a(lp3020
a(lp3021
a(lp3022
a(lp3023
a(lp3024
a(lp3025
a(lp3026
a(lp3027
a(lp3028
a(lp3029
a(lp3030
a(lp3031
a(lp3032
a(lp3033
a(lp3034
a(lp3035
a(lp3036
a(lp3037
a(lp3038
a(lp3039
a(lp3040
a(lp3041
I108
aI473
aI838
aI1203
aI1568
aI1933
aI2298
aI2663
aI3028
aI3393
aa(lp3042
a(lp3043
a(lp3044
a(lp3045
a(lp3046
a(lp3047
a(lp3048
a(lp3049
a(lp3050
a(lp3051
a(lp3052
a(lp3053
a(lp3054
a(lp3055
I122
aI487
aI852
aI1217
aI1582
aI1947
aI2312
aI2677
aI3042
aI3407
aa(lp3056
a(lp3057
I124
aI489
aI854
aI1219
aI1584
aI1949
aI2314
aI2679
aI3044
aI3409
aa(lp3058
a(lp3059
a(lp3060
a(lp3061
a(lp3062
a(lp3063
a(lp3064
a(lp3065
a(lp3066
a(lp3067
a(lp3068
a(lp3069
a(lp3070
a(lp3071
a(lp3072
a(lp3073
a(lp3074
a(lp3075
a(lp3076
a(lp3077
a(lp3078
a(lp3079
a(lp3080
a(lp3081
a(lp3082
a(lp3083
a(lp3084
a(lp3085
a(lp3086
a(lp3087
a(lp3088
a(lp3089
I156
aI521
aI1251
aI1616
aI1981
aI2346
aI2711
aI3076
aI3441
aa(lp3090
a(lp3091
a(lp3092
a(lp3093
a(lp3094
a(lp3095
a(lp3096
a(lp3097
a(lp3098
a(lp3099
a(lp3100
a(lp3101
a(lp3102
a(lp3103
I170
aI535
aI900
aI1265
aI1630
aI1995
aI2360
aI2725
aI3090
aI3455
aa(lp3104
a(lp3105
I172
aI537
aI1267
aI1632
aI1997
aI2362
aI2727
aI3092
aI3457
aa(lp3106
a(lp3107
a(lp3108
a(lp3109
a(lp3110
a(lp3111
a(lp3112
a(lp3113
a(lp3114
a(lp3115
a(lp3116
a(lp3117
a(lp3118
a(lp3119
a(lp3120
a(lp3121
a(lp3122
a(lp3123
a(lp3124
a(lp3125
a(lp3126
a(lp3127
a(lp3128
I195
aI560
aI925
aI1290
aI1655
aI2020
aI2385
aI2750
aI3115
aI3480
aa(lp3129
a(lp3130
a(lp3131
a(lp3132
a(lp3133
a(lp3134
a(lp3135
I202
aI567
aI932
aI1297
aI1662
aI2027
aI2392
aI2757
aI3122
aI3487
aa(lp3136
a(lp3137
a(lp3138
a(lp3139
a(lp3140
a(lp3141
a(lp3142
a(lp3143
a(lp3144
a(lp3145
a(lp3146
a(lp3147
a(lp3148
a(lp3149
a(lp3150
a(lp3151
a(lp3152
a(lp3153
a(lp3154
a(lp3155
a(lp3156
a(lp3157
a(lp3158
a(lp3159
a(lp3160
I227
aI592
aI957
aI1322
aI1687
aI2052
aI2417
aI2782
aI3147
aI3512
aa(lp3161
a(lp3162
a(lp3163
a(lp3164
a(lp3165
a(lp3166
a(lp3167
I234
aI599
aI964
aI1329
aI1694
aI2059
aI2424
aI2789
aI3154
aI3519
aa(lp3168
a(lp3169
I236
aI601
aI966
aI1331
aI1696
aI2061
aI2426
aI2791
aI3156
aI3521
aa(lp3170
a(lp3171
a(lp3172
a(lp3173
a(lp3174
a(lp3175
a(lp3176
I243
aI608
aI973
aI1338
aI1703
aI2068
aI2433
aI2798
aI3163
aI3528
aa(lp3177
a(lp3178
a(lp3179
a(lp3180
a(lp3181
a(lp3182
a(lp3183
a(lp3184
a(lp3185
a(lp3186
a(lp3187
a(lp3188
a(lp3189
a(lp3190
a(lp3191
a(lp3192
I259
aI624
aI989
aI1354
aI1719
aI2084
aI2449
aI2814
aI3179
aI3544
aa(lp3193
a(lp3194
a(lp3195
a(lp3196
a(lp3197
a(lp3198
a(lp3199
a(lp3200
a(lp3201
I268
aI633
aI998
aI1363
aI1728
aI2093
aI2458
aI2823
aI3188
aI3553
aa(lp3202
a(lp3203
a(lp3204
a(lp3205
a(lp3206
a(lp3207
a(lp3208
a(lp3209
a(lp3210
a(lp3211
a(lp3212
a(lp3213
a(lp3214
a(lp3215
a(lp3216
a(lp3217
a(lp3218
a(lp3219
a(lp3220
a(lp3221
a(lp3222
a(lp3223
a(lp3224
I291
aI656
aI1021
aI1386
aI1751
aI2116
aI2481
aI2846
aI3211
aI3576
aa(lp3225
a(lp3226
a(lp3227
a(lp3228
a(lp3229
a(lp3230
a(lp3231
a(lp3232
a(lp3233
I300
aI665
aI1030
aI1395
aI1760
aI2125
aI2490
aI2855
aI3220
aI3585
aa(lp3234
a(lp3235
a(lp3236
a(lp3237
a(lp3238
a(lp3239
a(lp3240
a(lp3241
a(lp3242
a(lp3243
a(lp3244
a(lp3245
a(lp3246
a(lp3247
a(lp3248
a(lp3249
a(lp3250
a(lp3251
a(lp3252
a(lp3253
a(lp3254
a(lp3255
a(lp3256
a(lp3257
a(lp3258
a(lp3259
a(lp3260
a(lp3261
a(lp3262
a(lp3263
a(lp3264
a(lp3265
a(lp3266
a(lp3267
a(lp3268
a(lp3269
a(lp3270
a(lp3271
a(lp3272
a(lp3273
a(lp3274
a(lp3275
a(lp3276
a(lp3277
a(lp3278
a(lp3279
a(lp3280
a(lp3281
a(lp3282
a(lp3283
a(lp3284
a(lp3285
a(lp3286
a(lp3287
a(lp3288
a(lp3289
a(lp3290
a(lp3291
a(lp3292
a(lp3293
a(lp3294
a(lp3295
a(lp3296
a(lp3297
a(lp3298
a(lp3299
a(lp3300
a(lp3301
a(lp3302
a(lp3303
a(lp3304
a(lp3305
a(lp3306
a(lp3307
a(lp3308
a(lp3309
a(lp3310
a(lp3311
a(lp3312
a(lp3313
a(lp3314
a(lp3315
a(lp3316
a(lp3317
a(lp3318
a(lp3319
a(lp3320
a(lp3321
a(lp3322
a(lp3323
a(lp3324
a(lp3325
a(lp3326
a(lp3327
a(lp3328
a(lp3329
a(lp3330
a(lp3331
a(lp3332
a(lp3333
a(lp3334
a(lp3335
a(lp3336
a(lp3337
a(lp3338
a(lp3339
a(lp3340
a(lp3341
a(lp3342
a(lp3343
a(lp3344
a(lp3345
a(lp3346
a(lp3347
a(lp3348
a(lp3349
a(lp3350
a(lp3351
a(lp3352
a(lp3353
a(lp3354
a(lp3355
a(lp3356
I58
aI423
aI788
aI1153
aI1518
aI1883
aI2248
aI2613
aI2978
aI3343
aa(lp3357
a(lp3358
a(lp3359
a(lp3360
a(lp3361
a(lp3362
a(lp3363
a(lp3364
a(lp3365
a(lp3366
a(lp3367
a(lp3368
a(lp3369
a(lp3370
a(lp3371
a(lp3372
a(lp3373
a(lp3374
I76
aI441
aI806
aI1171
aI1536
aI1901
aI2266
aI2631
aI2996
aI3361
aa(lp3375
a(lp3376
a(lp3377
a(lp3378
a(lp3379
a(lp3380
a(lp3381
I83
aI448
aI813
aI1178
aI1543
aI1908
aI2273
aI2638
aI3003
aI3368
aa(lp3382
a(lp3383
a(lp3384
a(lp3385
a(lp3386
a(lp3387
a(lp3388
a(lp3389
a(lp3390
a(lp3391
a(lp3392
a(lp3393
a(lp3394
a(lp3395
a(lp3396
a(lp3397
a(lp3398
a(lp3399
a(lp3400
a(lp3401
a(lp3402
a(lp3403
a(lp3404
a(lp3405
a(lp3406
I108
aI473
aI838
aI1203
aI1568
aI1933
aI2298
aI2663
aI3028
aI3393
aa(lp3407
a(lp3408
a(lp3409
a(lp3410
a(lp3411
a(lp3412
a(lp3413
a(lp3414
a(lp3415
a(lp3416
a(lp3417
a(lp3418
a(lp3419
a(lp3420
I122
aI487
aI852
aI1217
aI1582
aI1947
aI2312
aI2677
aI3042
aI3407
aa(lp3421
a(lp3422
I124
aI489
aI854
aI1219
aI1584
aI1949
aI2314
aI2679
aI3044
aI3409
aa(lp3423
a(lp3424
a(lp3425
a(lp3426
a(lp3427
a(lp3428
a(lp3429
a(lp3430
a(lp3431
a(lp3432
a(lp3433
a(lp3434
a(lp3435
a(lp3436
a(lp3437
a(lp3438
a(lp3439
a(lp3440
a(lp3441
a(lp3442
a(lp3443
a(lp3444
a(lp3445
a(lp3446
a(lp3447
a(lp3448
a(lp3449
a(lp3450
a(lp3451
a(lp3452
a(lp3453
a(lp3454
I156
aI521
aI1251
aI1616
aI1981
aI2346
aI2711
aI3076
aI3441
aa(lp3455
a(lp3456
a(lp3457
a(lp3458
a(lp3459
a(lp3460
a(lp3461
a(lp3462
a(lp3463
a(lp3464
a(lp3465
a(lp3466
a(lp3467
a(lp3468
I170
aI535
aI900
aI1265
aI1630
aI1995
aI2360
aI2725
aI3090
aI3455
aa(lp3469
a(lp3470
I172
aI537
aI1267
aI1632
aI1997
aI2362
aI2727
aI3092
aI3457
aa(lp3471
a(lp3472
a(lp3473
a(lp3474
a(lp3475
a(lp3476
a(lp3477
a(lp3478
a(lp3479
a(lp3480
a(lp3481
a(lp3482
a(lp3483
a(lp3484
a(lp3485
a(lp3486
a(lp3487
a(lp3488
a(lp3489
a(lp3490
a(lp3491
a(lp3492
a(lp3493
I195
aI560
aI925
aI1290
aI1655
aI2020
aI2385
aI2750
aI3115
aI3480
aa(lp3494
a(lp3495
a(lp3496
a(lp3497
a(lp3498
a(lp3499
a(lp3500
I202
aI567
aI932
aI1297
aI1662
aI2027
aI2392
aI2757
aI3122
aI3487
aa(lp3501
a(lp3502
a(lp3503
a(lp3504
a(lp3505
a(lp3506
a(lp3507
a(lp3508
a(lp3509
a(lp3510
a(lp3511
a(lp3512
a(lp3513
a(lp3514
a(lp3515
a(lp3516
a(lp3517
a(lp3518
a(lp3519
a(lp3520
a(lp3521
a(lp3522
a(lp3523
a(lp3524
a(lp3525
I227
aI592
aI957
aI1322
aI1687
aI2052
aI2417
aI2782
aI3147
aI3512
aa(lp3526
a(lp3527
a(lp3528
a(lp3529
a(lp3530
a(lp3531
a(lp3532
I234
aI599
aI964
aI1329
aI1694
aI2059
aI2424
aI2789
aI3154
aI3519
aa(lp3533
a(lp3534
I236
aI601
aI966
aI1331
aI1696
aI2061
aI2426
aI2791
aI3156
aI3521
aa(lp3535
a(lp3536
a(lp3537
a(lp3538
a(lp3539
a(lp3540
a(lp3541
I243
aI608
aI973
aI1338
aI1703
aI2068
aI2433
aI2798
aI3163
aI3528
aa(lp3542
a(lp3543
a(lp3544
a(lp3545
a(lp3546
a(lp3547
a(lp3548
a(lp3549
a(lp3550
a(lp3551
a(lp3552
a(lp3553
a(lp3554
a(lp3555
a(lp3556
a(lp3557
I259
aI624
aI989
aI1354
aI1719
aI2084
aI2449
aI2814
aI3179
aI3544
aa(lp3558
a(lp3559
a(lp3560
a(lp3561
a(lp3562
a(lp3563
a(lp3564
a(lp3565
a(lp3566
I268
aI633
aI998
aI1363
aI1728
aI2093
aI2458
aI2823
aI3188
aI3553
aa(lp3567
a(lp3568
a(lp3569
a(lp3570
a(lp3571
a(lp3572
a(lp3573
a(lp3574
a(lp3575
a(lp3576
a(lp3577
a(lp3578
a(lp3579
a(lp3580
a(lp3581
a(lp3582
a(lp3583
a(lp3584
a(lp3585
a(lp3586
a(lp3587
a(lp3588
a(lp3589
I291
aI656
aI1021
aI1386
aI1751
aI2116
aI2481
aI2846
aI3211
aI3576
aa(lp3590
a(lp3591
a(lp3592
a(lp3593
a(lp3594
a(lp3595
a(lp3596
a(lp3597
a(lp3598
I300
aI665
aI1030
aI1395
aI1760
aI2125
aI2490
aI2855
aI3220
aI3585
aa(lp3599
a(lp3600
a(lp3601
a(lp3602
a(lp3603
a(lp3604
a(lp3605
a(lp3606
a(lp3607
a(lp3608
a(lp3609
a(lp3610
a(lp3611
a(lp3612
a(lp3613
a(lp3614
a(lp3615
a(lp3616
a(lp3617
a(lp3618
a(lp3619
a(lp3620
a(lp3621
a(lp3622
a(lp3623
a(lp3624
a(lp3625
a(lp3626
a(lp3627
a(lp3628
a(lp3629
a(lp3630
a(lp3631
a(lp3632
a(lp3633
a(lp3634
a(lp3635
a(lp3636
a(lp3637
a(lp3638
a(lp3639
a(lp3640
a(lp3641
a(lp3642
a(lp3643
a(lp3644
a(lp3645
a(lp3646
a(lp3647
a(lp3648
a(lp3649
a(lp3650
a(lp3651
a(lp3652
a(lp3653
a(lp3654
a(lp3655
a(lp3656
a(lp3657
a(lp3658
a(lp3659
a(lp3660
a(lp3661
a(lp3662
atbsS'format'
p3663
S'lil'
p3664
sS'dtype'
p3665
g10
(S'f8'
I0
I1
tRp3666
(I3
S'<'
NNNI-1
I-1
I0
tbsS'_shape'
p3667
(I3650
I3650
tp3668
sS'maxprint'
p3669
I50
sS'data'
p3670
g7
(g8
(I0
tS'b'
tRp3671
(I1
(I3650
tg11
I00
(lp3672
(lp3673
a(lp3674
a(lp3675
a(lp3676
a(lp3677
a(lp3678
a(lp3679
a(lp3680
a(lp3681
a(lp3682
a(lp3683
a(lp3684
a(lp3685
a(lp3686
a(lp3687
a(lp3688
a(lp3689
a(lp3690
a(lp3691
a(lp3692
a(lp3693
a(lp3694
a(lp3695
a(lp3696
a(lp3697
a(lp3698
a(lp3699
a(lp3700
a(lp3701
a(lp3702
a(lp3703
a(lp3704
a(lp3705
a(lp3706
a(lp3707
a(lp3708
a(lp3709
a(lp3710
a(lp3711
a(lp3712
a(lp3713
a(lp3714
a(lp3715
a(lp3716
a(lp3717
a(lp3718
a(lp3719
a(lp3720
a(lp3721
a(lp3722
a(lp3723
a(lp3724
a(lp3725
a(lp3726
a(lp3727
a(lp3728
a(lp3729
a(lp3730
a(lp3731
F8035.6690688176968
aF-1.6321990869982983
aF-3.9426481635018717
aF-197.92125556250539
aF67.958686145175307
aF-251.67599631004123
aF-437.80509599855577
aF12.28792712026916
aF4235.6503200835505
aF483.08669420293882
aa(lp3732
a(lp3733
a(lp3734
a(lp3735
a(lp3736
a(lp3737
a(lp3738
a(lp3739
a(lp3740
a(lp3741
a(lp3742
a(lp3743
a(lp3744
a(lp3745
a(lp3746
a(lp3747
a(lp3748
a(lp3749
F4164.751049984261
aF-4.884572035734891
aF450.31571858089592
aF-111.91199860149936
aF29.833063308615237
aF597.253193745928
aF97.096540230268147
aF7.0836847498867428
aF3216.2480977149244
aF277.18940032173123
aa(lp3750
a(lp3751
a(lp3752
a(lp3753
a(lp3754
a(lp3755
a(lp3756
F5083.3941998007504
aF-3.1825123869566596
aF252.53547164538759
aF-261.56901640206343
aF72.136751327889215
aF444.92053916656005
aF-270.36806216074183
aF3.8158503912200104
aF2979.9267593944023
aF319.23464121064171
aa(lp3757
a(lp3758
a(lp3759
a(lp3760
a(lp3761
a(lp3762
a(lp3763
a(lp3764
a(lp3765
a(lp3766
a(lp3767
a(lp3768
a(lp3769
a(lp3770
a(lp3771
a(lp3772
a(lp3773
a(lp3774
a(lp3775
a(lp3776
a(lp3777
a(lp3778
a(lp3779
a(lp3780
a(lp3781
F3434.0873479976608
aF-8.7282550964573602
aF-63.154043061786069
aF-420.10925618285455
aF11.622223183849201
aF273.59021252948423
aF119.13482858005864
aF-5.8111819356554406
aF2108.6910585665919
aF244.8641751584546
aa(lp3782
a(lp3783
a(lp3784
a(lp3785
a(lp3786
a(lp3787
a(lp3788
a(lp3789
a(lp3790
a(lp3791
a(lp3792
a(lp3793
a(lp3794
a(lp3795
F2245.9428112853175
aF-3.8623515052904622
aF34.663642267673822
aF161.82404287690133
aF-24.424324251981488
aF13.102819451660253
aF-111.01246393252495
aF-11.024442869711493
aF1252.2361995337405
aF54.240005908923195
aa(lp3796
a(lp3797
F3400.8829651099859
aF0.93573540027591662
aF103.2824254565412
aF247.71577962212632
aF94.909084680239175
aF-187.43526872810889
aF-101.02851391025069
aF12.972050811299596
aF1902.1846171085599
aF115.76223819531606
aa(lp3798
a(lp3799
a(lp3800
a(lp3801
a(lp3802
a(lp3803
a(lp3804
a(lp3805
a(lp3806
a(lp3807
a(lp3808
a(lp3809
a(lp3810
a(lp3811
a(lp3812
a(lp3813
a(lp3814
a(lp3815
a(lp3816
a(lp3817
a(lp3818
a(lp3819
a(lp3820
a(lp3821
a(lp3822
a(lp3823
a(lp3824
a(lp3825
a(lp3826
a(lp3827
a(lp3828
a(lp3829
F1907.0550802524622
aF-1.2997837472994433
aF285.42227177297264
aF-89.538947278811065
aF-143.29395447987281
aF-87.397535608602084
aF-17.812755004342762
aF1262.1122181144528
aF106.15880654540888
aa(lp3830
a(lp3831
a(lp3832
a(lp3833
a(lp3834
a(lp3835
a(lp3836
a(lp3837
a(lp3838
a(lp3839
a(lp3840
a(lp3841
a(lp3842
a(lp3843
F1948.9164827746208
aF-4.9765233711696055
aF221.15643147913033
aF328.45790656210738
aF-38.368129295918152
aF-462.40346627257622
aF-242.30630621957516
aF24.178376989425487
aF603.91228409173436
aF87.451778796321378
aa(lp3844
a(lp3845
F1799.2900836816261
aF-1.1917251185877831
aF534.8030583718355
aF-86.328964243875816
aF-81.71168417447916
aF-40.762523667581263
aF-3.3790598763516755
aF792.42752235586522
aF69.604686814273009
aa(lp3846
a(lp3847
a(lp3848
a(lp3849
a(lp3850
a(lp3851
a(lp3852
a(lp3853
a(lp3854
a(lp3855
a(lp3856
a(lp3857
a(lp3858
a(lp3859
a(lp3860
a(lp3861
a(lp3862
a(lp3863
a(lp3864
a(lp3865
a(lp3866
a(lp3867
a(lp3868
F497.21923289780534
aF-1.3167486656584515
aF31.569692282573669
aF289.43905761025235
aF-61.065102840984764
aF-63.249337500792535
aF101.87218322244007
aF4.0479235963175597
aF-187.1571654987747
aF-64.335491600786554
aa(lp3869
a(lp3870
a(lp3871
a(lp3872
a(lp3873
a(lp3874
a(lp3875
F616.38836070798675
aF-1.9618313196190229
aF213.66708971015669
aF359.16647362910226
aF79.565987487484335
aF-159.27204071175538
aF-37.913355654950465
aF32.553715456629106
aF-66.602350656808085
aF-24.372608109501925
aa(lp3876
a(lp3877
a(lp3878
a(lp3879
a(lp3880
a(lp3881
a(lp3882
a(lp3883
a(lp3884
a(lp3885
a(lp3886
a(lp3887
a(lp3888
a(lp3889
a(lp3890
a(lp3891
a(lp3892
a(lp3893
a(lp3894
a(lp3895
a(lp3896
a(lp3897
a(lp3898
a(lp3899
a(lp3900
F822.88977125699603
aF3.8385621792258462
aF-108.46649161067035
aF397.41214123978352
aF209.49438095385631
aF-220.30159243513481
aF-180.0249876282578
aF9.7968523959934828
aF-70.204387725425477
aF-33.622387718423852
aa(lp3901
a(lp3902
a(lp3903
a(lp3904
a(lp3905
a(lp3906
a(lp3907
F401.26876292845282
aF-0.84693230206767112
aF54.220642908830996
aF950.45536223636873
aF-269.47089928341939
aF118.47589842517436
aF-16.98292564356052
aF4.7719984408445271
aF8.6065485405129039
aF-39.938861817745419
aa(lp3908
a(lp3909
F-7.9102463246272237
aF2.5009754267557582
aF-126.64357313951768
aF-68.872006409037567
aF76.552166206056427
aF-155.86442003723278
aF-74.732794530518731
aF-12.124618820053001
aF-372.17883885887204
aF5.8502166666585254
aa(lp3910
a(lp3911
a(lp3912
a(lp3913
a(lp3914
a(lp3915
a(lp3916
F91.839410742977634
aF1.001546223733385
aF-8.8982879731247522
aF-207.3710760441827
aF116.01722675891324
aF173.86743635938728
aF-146.98657579970131
aF6.4182131609413773
aF-277.0608467983493
aF-50.773432036521626
aa(lp3917
a(lp3918
a(lp3919
a(lp3920
a(lp3921
a(lp3922
a(lp3923
a(lp3924
a(lp3925
a(lp3926
a(lp3927
a(lp3928
a(lp3929
a(lp3930
a(lp3931
a(lp3932
F871.40725053558299
aF-0.72294312758458545
aF112.54529717064088
aF673.25395498585294
aF1.8636342247191351
aF-158.71077536644407
aF-138.50021929329159
aF-3.9471217405662173
aF136.08329272329911
aF18.615070729310901
aa(lp3933
a(lp3934
a(lp3935
a(lp3936
a(lp3937
a(lp3938
a(lp3939
a(lp3940
a(lp3941
F750.85244048977984
aF-2.0042804749209608
aF421.30104844773086
aF710.71562075530892
aF99.110575035865622
aF-192.56681440538159
aF-225.59346604111852
aF13.309134772043762
aF706.81624180224389
aF54.200735633003205
aa(lp3942
a(lp3943
a(lp3944
a(lp3945
a(lp3946
a(lp3947
a(lp3948
a(lp3949
a(lp3950
a(lp3951
a(lp3952
a(lp3953
a(lp3954
a(lp3955
a(lp3956
a(lp3957
a(lp3958
a(lp3959
a(lp3960
a(lp3961
a(lp3962
a(lp3963
a(lp3964
F4860.9319776460325
aF-4.3169762875550077
aF-50.322282163506316
aF1189.3520962757975
aF-357.17040702820668
aF908.73905094213114
aF-225.32126422447618
aF-16.555748061364284
aF3266.3512996577992
aF293.52237618240906
aa(lp3965
a(lp3966
a(lp3967
a(lp3968
a(lp3969
a(lp3970
a(lp3971
a(lp3972
a(lp3973
F6778.5056103275565
aF0.91333731688791886
aF-92.687059805030003
aF1761.0739803330944
aF311.70493457466364
aF-473.70565425808309
aF-622.06302686718118
aF76.18269819431589
aF3879.0411167610728
aF355.55383988139511
aa(lp3974
a(lp3975
a(lp3976
a(lp3977
a(lp3978
a(lp3979
a(lp3980
a(lp3981
a(lp3982
a(lp3983
a(lp3984
a(lp3985
a(lp3986
a(lp3987
a(lp3988
a(lp3989
a(lp3990
a(lp3991
a(lp3992
a(lp3993
a(lp3994
a(lp3995
a(lp3996
a(lp3997
a(lp3998
a(lp3999
a(lp4000
a(lp4001
a(lp4002
a(lp4003
a(lp4004
a(lp4005
a(lp4006
a(lp4007
a(lp4008
a(lp4009
a(lp4010
a(lp4011
a(lp4012
a(lp4013
a(lp4014
a(lp4015
a(lp4016
a(lp4017
a(lp4018
a(lp4019
a(lp4020
a(lp4021
a(lp4022
a(lp4023
a(lp4024
a(lp4025
a(lp4026
a(lp4027
a(lp4028
a(lp4029
a(lp4030
a(lp4031
a(lp4032
a(lp4033
a(lp4034
a(lp4035
a(lp4036
a(lp4037
a(lp4038
a(lp4039
a(lp4040
a(lp4041
a(lp4042
a(lp4043
a(lp4044
a(lp4045
a(lp4046
a(lp4047
a(lp4048
a(lp4049
a(lp4050
a(lp4051
a(lp4052
a(lp4053
a(lp4054
a(lp4055
a(lp4056
a(lp4057
a(lp4058
a(lp4059
a(lp4060
a(lp4061
a(lp4062
a(lp4063
a(lp4064
a(lp4065
a(lp4066
a(lp4067
a(lp4068
a(lp4069
a(lp4070
a(lp4071
a(lp4072
a(lp4073
a(lp4074
a(lp4075
a(lp4076
a(lp4077
a(lp4078
a(lp4079
a(lp4080
a(lp4081
a(lp4082
a(lp4083
a(lp4084
a(lp4085
a(lp4086
a(lp4087
a(lp4088
a(lp4089
a(lp4090
a(lp4091
a(lp4092
a(lp4093
a(lp4094
a(lp4095
a(lp4096
F-1.4110056054117415
aF0.00089179635898162246
aF-0.0060998171791393219
aF0.047090462085286333
aF-0.0077570817824668126
aF0.040382034521835308
aF0.064359866741581229
aF0.0164270270996969
aF-1.5085100411871277
aF-0.20246520085476227
aa(lp4097
a(lp4098
a(lp4099
a(lp4100
a(lp4101
a(lp4102
a(lp4103
a(lp4104
a(lp4105
a(lp4106
a(lp4107
a(lp4108
a(lp4109
a(lp4110
a(lp4111
a(lp4112
a(lp4113
a(lp4114
F-4.8682434306002165
aF0.019522738980981558
aF-1.2155453310569442
aF-0.15424206356584591
aF-0.12660654746809996
aF-0.80881676911559452
aF-0.68678025488821959
aF0.038710989969104048
aF-7.6320845199262521
aF-0.78467463637821311
aa(lp4115
a(lp4116
a(lp4117
a(lp4118
a(lp4119
a(lp4120
a(lp4121
F-2.8276864683096647
aF0.0067987337981634255
aF-0.35380366414372588
aF0.2609468335856846
aF0.0080800116597501415
aF-1.252499823301001
aF0.078800682645763231
aF0.011704845426230293
aF-4.3153193685085967
aF-0.56090879163583907
aa(lp4122
a(lp4123
a(lp4124
a(lp4125
a(lp4126
a(lp4127
a(lp4128
a(lp4129
a(lp4130
a(lp4131
a(lp4132
a(lp4133
a(lp4134
a(lp4135
a(lp4136
a(lp4137
a(lp4138
a(lp4139
a(lp4140
a(lp4141
a(lp4142
a(lp4143
a(lp4144
a(lp4145
a(lp4146
F-8.4457590969477803
aF0.023908034579855908
aF0.15108091999671558
aF1.1957843742971264
aF0.033128598475595794
aF-0.78769432365621839
aF-0.40551699220792159
aF0.026913394429728399
aF-6.5258276761570588
aF-0.81081637792745909
aa(lp4147
a(lp4148
a(lp4149
a(lp4150
a(lp4151
a(lp4152
a(lp4153
a(lp4154
a(lp4155
a(lp4156
a(lp4157
a(lp4158
a(lp4159
a(lp4160
F-3.8224324150348821
aF0.012901110735263899
aF-0.21310385400763465
aF-0.45186822617004907
aF0.12738415322566254
aF-0.29637477749755448
aF0.13944245758068519
aF0.06094102444897942
aF-5.3258413096335389
aF-0.50948090746238961
aa(lp4161
a(lp4162
F1.0388392410187741
aF0.0044298578694146329
aF-0.32356376744591131
aF-0.054567002305550005
aF0.01841672370161973
aF-0.44158268291960567
aF-0.057902713179736054
aF0.0024453661318091235
aF-1.7680753985893638
aF-0.26548801768111474
aa(lp4163
a(lp4164
a(lp4165
a(lp4166
a(lp4167
a(lp4168
a(lp4169
a(lp4170
a(lp4171
a(lp4172
a(lp4173
a(lp4174
a(lp4175
a(lp4176
a(lp4177
a(lp4178
a(lp4179
a(lp4180
a(lp4181
a(lp4182
a(lp4183
a(lp4184
a(lp4185
a(lp4186
a(lp4187
a(lp4188
a(lp4189
a(lp4190
a(lp4191
a(lp4192
a(lp4193
a(lp4194
F-1.2751634068108864
aF0.0038233916033192372
aF-0.44904498730513609
aF0.22206856215012394
aF0.50972855519804128
aF-0.045507382584464295
aF-0.0054698454099444405
aF-2.6352740239987682
aF-0.31154353680173941
aa(lp4195
a(lp4196
a(lp4197
a(lp4198
a(lp4199
a(lp4200
a(lp4201
a(lp4202
a(lp4203
a(lp4204
a(lp4205
a(lp4206
a(lp4207
a(lp4208
F-4.9669163074139711
aF0.019686434427068633
aF-0.94453550397721742
aF-1.2020142103885689
aF0.39178046778998166
aF1.5245211357206578
aF0.61088207964354879
aF-0.092141075325180566
aF-3.1443566569921977
aF-0.48578790018405371
aa(lp4209
a(lp4210
F-1.0069272249335626
aF0.0080083994991042573
aF-1.247573327978202
aF0.45317390395815949
aF0.40528252975846613
aF-0.16271321512384418
aF-0.071001210466548059
aF-2.2466373428287056
aF-0.28782033423269127
aa(lp4211
a(lp4212
a(lp4213
a(lp4214
a(lp4215
a(lp4216
a(lp4217
a(lp4218
a(lp4219
a(lp4220
a(lp4221
a(lp4222
a(lp4223
a(lp4224
a(lp4225
a(lp4226
a(lp4227
a(lp4228
a(lp4229
a(lp4230
a(lp4231
a(lp4232
a(lp4233
F-1.3652997954416435
aF0.012565304352563089
aF-0.10678109507722411
aF-1.5863600433263514
aF0.78989381147032134
aF-0.41501715397629368
aF-0.82908550025351246
aF-0.052409965256572377
aF-1.0310069964436508
aF-0.11184370096728458
aa(lp4234
a(lp4235
a(lp4236
a(lp4237
a(lp4238
a(lp4239
a(lp4240
F-1.9827969384433874
aF0.027017343223745272
aF-1.5079525891859014
aF-1.9878597920519603
aF0.42286419990600344
aF0.76043996377617162
aF-1.9219871201514582
aF-0.15375754836011168
aF-1.0364611037483318
aF-0.0019106417836756151
aa(lp4241
a(lp4242
a(lp4243
a(lp4244
a(lp4245
a(lp4246
a(lp4247
a(lp4248
a(lp4249
a(lp4250
a(lp4251
a(lp4252
a(lp4253
a(lp4254
a(lp4255
a(lp4256
a(lp4257
a(lp4258
a(lp4259
a(lp4260
a(lp4261
a(lp4262
a(lp4263
a(lp4264
a(lp4265
F3.7816915154920139
aF0.049032816695770975
aF-2.5852177842899948
aF-3.3513882724545141
aF1.9473201384734296
aF1.1163753088627715
aF-2.0406639766878953
aF-0.25111053791881943
aF-1.2907746316237478
aF0.097660513009856231
aa(lp4266
a(lp4267
a(lp4268
a(lp4269
a(lp4270
a(lp4271
a(lp4272
F-0.91862822626520568
aF0.0079627165971984937
aF-0.18324079753551104
aF-3.3070711280558385
aF1.6695924809351226
aF-0.55845724572511912
aF-1.164468298175958
aF0.035449934654430137
aF-0.57817842319396462
aF-0.019425538955175625
aa(lp4273
a(lp4274
F2.4506218498920873
aF0.014567802519849238
aF-0.31586790405491172
aF4.3770799984521602
aF-0.45176202223551343
aF-6.0004013702208425
aF0.46382915286358184
aF0.044291492695691659
aF-0.50562971587453376
aF-0.21469577227151149
aa(lp4275
a(lp4276
a(lp4277
a(lp4278
a(lp4279
a(lp4280
a(lp4281
F1.0374706010951584
aF0.0019357543346032458
aF-0.055460550041352974
aF-1.4419886368299828
aF0.3710692836333962
aF-0.031916563836276168
aF-0.23977711205436236
aF-0.019695969855071382
aF-0.12376888125498198
aF-0.028000327056965091
aa(lp4282
a(lp4283
a(lp4284
a(lp4285
a(lp4286
a(lp4287
a(lp4288
a(lp4289
a(lp4290
a(lp4291
a(lp4292
a(lp4293
a(lp4294
a(lp4295
a(lp4296
a(lp4297
F-0.73114518606143264
aF0.011226394813768081
aF-1.0322537782880836
aF-2.6821553200662152
aF0.53746338629645507
aF0.76525979580965853
aF-0.73118101573399485
aF0.14174914853004594
aF-1.7059122642271163
aF-0.30746518386859378
aa(lp4298
a(lp4299
a(lp4300
a(lp4301
a(lp4302
a(lp4303
a(lp4304
a(lp4305
a(lp4306
F-2.0220427998651758
aF0.012071055266460462
aF-1.1588116910488111
aF-4.0929296729608211
aF0.54428372919801404
aF1.1616680284376457
aF-0.18479531238568825
aF0.057242022233339185
aF-2.6430413191391722
aF-0.28266454732417401
aa(lp4307
a(lp4308
a(lp4309
a(lp4310
a(lp4311
a(lp4312
a(lp4313
a(lp4314
a(lp4315
a(lp4316
a(lp4317
a(lp4318
a(lp4319
a(lp4320
a(lp4321
a(lp4322
a(lp4323
a(lp4324
a(lp4325
a(lp4326
a(lp4327
a(lp4328
a(lp4329
F-4.0073788731831428
aF0.011382872422416312
aF0.00037631009419669681
aF-2.9110494903505924
aF0.85994557030844021
aF-1.0186599008754627
aF0.18210861707501635
aF0.12953037531460154
aF-5.5615725469415622
aF-0.55256609288178993
aa(lp4330
a(lp4331
a(lp4332
a(lp4333
a(lp4334
a(lp4335
a(lp4336
a(lp4337
a(lp4338
F0.84200086451768907
aF-0.0012853235836773891
aF-0.020678651846406382
aF0.0099774185441381391
aF-0.0014575111950687614
aF2.3806748079835405
aF-0.15089414752422758
aF0.00485108134218315
aF-0.21025295254828436
aF-0.025909813183844221
aa(lp4339
a(lp4340
a(lp4341
a(lp4342
a(lp4343
a(lp4344
a(lp4345
a(lp4346
a(lp4347
a(lp4348
a(lp4349
a(lp4350
a(lp4351
a(lp4352
a(lp4353
a(lp4354
a(lp4355
a(lp4356
a(lp4357
a(lp4358
a(lp4359
a(lp4360
a(lp4361
a(lp4362
a(lp4363
a(lp4364
a(lp4365
a(lp4366
a(lp4367
a(lp4368
a(lp4369
a(lp4370
a(lp4371
a(lp4372
a(lp4373
a(lp4374
a(lp4375
a(lp4376
a(lp4377
a(lp4378
a(lp4379
a(lp4380
a(lp4381
a(lp4382
a(lp4383
a(lp4384
a(lp4385
a(lp4386
a(lp4387
a(lp4388
a(lp4389
a(lp4390
a(lp4391
a(lp4392
a(lp4393
a(lp4394
a(lp4395
a(lp4396
a(lp4397
a(lp4398
a(lp4399
a(lp4400
a(lp4401
a(lp4402
a(lp4403
a(lp4404
a(lp4405
a(lp4406
a(lp4407
a(lp4408
a(lp4409
a(lp4410
a(lp4411
a(lp4412
a(lp4413
a(lp4414
a(lp4415
a(lp4416
a(lp4417
a(lp4418
a(lp4419
a(lp4420
a(lp4421
a(lp4422
a(lp4423
a(lp4424
a(lp4425
a(lp4426
a(lp4427
a(lp4428
a(lp4429
a(lp4430
a(lp4431
a(lp4432
a(lp4433
a(lp4434
a(lp4435
a(lp4436
a(lp4437
a(lp4438
a(lp4439
a(lp4440
a(lp4441
a(lp4442
a(lp4443
a(lp4444
a(lp4445
a(lp4446
a(lp4447
a(lp4448
a(lp4449
a(lp4450
a(lp4451
a(lp4452
a(lp4453
a(lp4454
a(lp4455
a(lp4456
a(lp4457
a(lp4458
a(lp4459
a(lp4460
a(lp4461
F-4.3280273864798602
aF-0.0069624583876048973
aF0.47134127711956353
aF-1.9749355928411205
aF0.41780928716761423
aF0.28372428850786946
aF-0.81318197175939133
aF-0.23505987711835985
aF8.3568498454589246
aF1.6118327061942495
aa(lp4462
a(lp4463
a(lp4464
a(lp4465
a(lp4466
a(lp4467
a(lp4468
a(lp4469
a(lp4470
a(lp4471
a(lp4472
a(lp4473
a(lp4474
a(lp4475
a(lp4476
a(lp4477
a(lp4478
a(lp4479
F450.2068719602903
aF-1.230344537361816
aF39.281471231333853
aF-1.7075365121854702
aF18.46433832497496
aF82.902573694809689
aF-141.98108004848109
aF-0.41710706000230857
aF499.22869749252641
aF54.773694557752606
aa(lp4480
a(lp4481
a(lp4482
a(lp4483
a(lp4484
a(lp4485
a(lp4486
F252.49904958002389
aF-0.40003946821798309
aF24.781387608641126
aF-18.37607825905252
aF0.64385368148123234
aF59.843118904723269
aF3.5573290091406307
aF-0.53187427795364783
aF279.03135162432591
aF33.861930148759711
aa(lp4487
a(lp4488
a(lp4489
a(lp4490
a(lp4491
a(lp4492
a(lp4493
a(lp4494
a(lp4495
a(lp4496
a(lp4497
a(lp4498
a(lp4499
a(lp4500
a(lp4501
a(lp4502
a(lp4503
a(lp4504
a(lp4505
a(lp4506
a(lp4507
a(lp4508
a(lp4509
a(lp4510
a(lp4511
F-63.040265341207657
aF0.15538301756379269
aF1.1017643797295307
aF8.4011649525983501
aF-0.49322110839966626
aF-8.670559115131482
aF-1.8242622745745507
aF0.059858029644033195
aF-33.06812002001891
aF-3.5900078465544993
aa(lp4512
a(lp4513
a(lp4514
a(lp4515
a(lp4516
a(lp4517
a(lp4518
a(lp4519
a(lp4520
a(lp4521
a(lp4522
a(lp4523
a(lp4524
a(lp4525
F34.645315505343888
aF-0.21418473661327653
aF133.25963452714973
aF17.598842583232965
aF-15.512113349380741
aF54.880777944354975
aF19.241561566296639
aF-1.0167072073130612
aF100.15867941692846
aF7.4770231339726934
aa(lp4526
a(lp4527
F103.35319977627933
aF-0.34152645156382277
aF44.390085207623997
aF23.640045121453568
aF-0.13998189274389006
aF22.754609396713477
aF9.8230222178585791
aF1.0350930779168266
aF272.45021687605231
aF30.252689597887183
aa(lp4528
a(lp4529
a(lp4530
a(lp4531
a(lp4532
a(lp4533
a(lp4534
a(lp4535
a(lp4536
a(lp4537
a(lp4538
a(lp4539
a(lp4540
a(lp4541
a(lp4542
a(lp4543
a(lp4544
a(lp4545
a(lp4546
a(lp4547
a(lp4548
a(lp4549
a(lp4550
a(lp4551
a(lp4552
a(lp4553
a(lp4554
a(lp4555
a(lp4556
a(lp4557
a(lp4558
a(lp4559
F6.5198623042996672e-07
aF-1.8018620867030411e-09
aF-2.4424790604118788e-10
aF2.0902244546365231e-07
aF-1.0341201053994526e-07
aF-2.1698977831710264e-07
aF4.1798046480724308e-08
aF2.6070628560193097e-09
aF1.2017094465424717e-06
aF1.4583481925814148e-07
aa(lp4560
a(lp4561
a(lp4562
a(lp4563
a(lp4564
a(lp4565
a(lp4566
a(lp4567
a(lp4568
a(lp4569
a(lp4570
a(lp4571
a(lp4572
a(lp4573
F221.41096263084137
aF-0.94979775155934476
aF57.912560702533256
aF42.827930002431458
aF-20.619203056071456
aF-72.709695864148216
aF-22.036042057749228
aF4.7782448220345941
aF183.25061494905981
aF29.768699683074828
aa(lp4574
a(lp4575
F6.3260992758330648e-07
aF-2.5897397087589792e-09
aF-5.1848342539313817e-10
aF3.9823155812278608e-07
aF-1.4470893512371719e-07
aF-1.408261480049043e-07
aF8.6856068665546241e-08
aF2.2738702701182139e-08
aF6.8660990586221364e-07
aF9.3770039948469491e-08
aa(lp4576
a(lp4577
a(lp4578
a(lp4579
a(lp4580
a(lp4581
a(lp4582
a(lp4583
a(lp4584
a(lp4585
a(lp4586
a(lp4587
a(lp4588
a(lp4589
a(lp4590
a(lp4591
a(lp4592
a(lp4593
a(lp4594
a(lp4595
a(lp4596
a(lp4597
a(lp4598
F31.582056747581078
aF-0.10201275379984054
aF3.9077857838520913
aF13.902158002565557
aF1.0367761316132373
aF7.7323079938906858
aF-3.4616881361415608
aF-0.036447156404051384
aF5.2219278234844069
aF-1.7454154122020782
aa(lp4599
a(lp4600
a(lp4601
a(lp4602
a(lp4603
a(lp4604
a(lp4605
F213.67435277808156
aF-1.4904840917040474
aF115.56738600537741
aF155.12555586738586
aF3.373055312838602
aF-47.327573615696394
aF62.681792489804877
aF13.154810940552153
aF26.93288673194516
aF-5.4190368858897386
aa(lp4606
a(lp4607
a(lp4608
a(lp4609
a(lp4610
a(lp4611
a(lp4612
a(lp4613
a(lp4614
a(lp4615
a(lp4616
a(lp4617
a(lp4618
a(lp4619
a(lp4620
a(lp4621
a(lp4622
a(lp4623
a(lp4624
a(lp4625
a(lp4626
a(lp4627
a(lp4628
a(lp4629
a(lp4630
F-108.52179528342276
aF-2.752811845141423
aF145.45394773080034
aF263.18012995574236
aF-92.751137081847901
aF-44.454483116851407
aF107.57175932241125
aF17.74903868323463
aF62.707148096308174
aF-9.690030289277729
aa(lp4631
a(lp4632
a(lp4633
a(lp4634
a(lp4635
a(lp4636
a(lp4637
F54.187053266652185
aF-0.16785652867667977
aF-2.4135150544779549
aF75.401677923636612
aF-31.943092682062968
aF-49.775853261380121
aF8.5230655200163596
aF-0.85862648102619232
aF9.4152603713482108
aF0.82871698392494864
aa(lp4638
a(lp4639
F-126.58560066824975
aF-0.34366642864824826
aF15.568114619668449
aF23.45745855336645
aF-36.519488588737659
aF-17.633240645409387
aF55.180731095560986
aF2.6807757791402764
aF15.454835278205792
aF3.8952126857338953
aa(lp4640
a(lp4641
a(lp4642
a(lp4643
a(lp4644
a(lp4645
a(lp4646
F-8.8888389759844699
aF-0.052391735394508032
aF3.6798971203566566
aF80.600722363044497
aF-11.233039165503556
aF6.2475932982586357
aF-8.040437049494642
aF1.5144167475611425
aF-0.11278746825382768
aF0.53329962668158259
aa(lp4647
a(lp4648
a(lp4649
a(lp4650
a(lp4651
a(lp4652
a(lp4653
a(lp4654
a(lp4655
a(lp4656
a(lp4657
a(lp4658
a(lp4659
a(lp4660
a(lp4661
a(lp4662
F112.57637382300345
aF-1.0514519033222314
aF96.897344192825585
aF258.13928257178986
aF-48.993216417159147
aF-80.145425407351922
aF66.273523557924818
aF-13.12961330768303
aF160.11468915166915
aF28.684809016965573
aa(lp4663
a(lp4664
a(lp4665
a(lp4666
a(lp4667
a(lp4668
a(lp4669
a(lp4670
a(lp4671
F421.27066706143523
aF-1.1559293966456607
aF185.15397215423945
aF687.40302197056735
aF-53.157589263719274
aF-144.77025445103209
aF-93.899396347296715
aF0.87127887127280701
aF231.55500059601763
aF26.551448684131174
aa(lp4672
a(lp4673
a(lp4674
a(lp4675
a(lp4676
a(lp4677
a(lp4678
a(lp4679
a(lp4680
a(lp4681
a(lp4682
a(lp4683
a(lp4684
a(lp4685
a(lp4686
a(lp4687
a(lp4688
a(lp4689
a(lp4690
a(lp4691
a(lp4692
a(lp4693
a(lp4694
F-50.289666342351325
aF-1.5587531265737198e-05
aF1.4867552078356994
aF-13.880186111592252
aF3.3181595249232032
aF-3.7010635889345167
aF1.4308172868737756
aF-0.83284157348373355
aF7.9254736995437725
aF2.8677186847403391
aa(lp4695
a(lp4696
a(lp4697
a(lp4698
a(lp4699
a(lp4700
a(lp4701
a(lp4702
a(lp4703
F-92.651725935866125
aF-0.029594460215776053
aF15.09264961896406
aF-136.55436603698945
aF-11.534957522485456
aF-73.302103587025158
aF14.287438787619067
aF0.9303363412982435
aF-178.49918272361265
aF-17.561231047125148
aa(lp4704
a(lp4705
a(lp4706
a(lp4707
a(lp4708
a(lp4709
a(lp4710
a(lp4711
a(lp4712
a(lp4713
a(lp4714
a(lp4715
a(lp4716
a(lp4717
a(lp4718
a(lp4719
a(lp4720
a(lp4721
a(lp4722
a(lp4723
a(lp4724
a(lp4725
a(lp4726
a(lp4727
a(lp4728
a(lp4729
a(lp4730
a(lp4731
a(lp4732
a(lp4733
a(lp4734
a(lp4735
a(lp4736
a(lp4737
a(lp4738
a(lp4739
a(lp4740
a(lp4741
a(lp4742
a(lp4743
a(lp4744
a(lp4745
a(lp4746
a(lp4747
a(lp4748
a(lp4749
a(lp4750
a(lp4751
a(lp4752
a(lp4753
a(lp4754
a(lp4755
a(lp4756
a(lp4757
a(lp4758
a(lp4759
a(lp4760
a(lp4761
a(lp4762
a(lp4763
a(lp4764
a(lp4765
a(lp4766
a(lp4767
a(lp4768
a(lp4769
a(lp4770
a(lp4771
a(lp4772
a(lp4773
a(lp4774
a(lp4775
a(lp4776
a(lp4777
a(lp4778
a(lp4779
a(lp4780
a(lp4781
a(lp4782
a(lp4783
a(lp4784
a(lp4785
a(lp4786
a(lp4787
a(lp4788
a(lp4789
a(lp4790
a(lp4791
a(lp4792
a(lp4793
a(lp4794
a(lp4795
a(lp4796
a(lp4797
a(lp4798
a(lp4799
a(lp4800
a(lp4801
a(lp4802
a(lp4803
a(lp4804
a(lp4805
a(lp4806
a(lp4807
a(lp4808
a(lp4809
a(lp4810
a(lp4811
a(lp4812
a(lp4813
a(lp4814
a(lp4815
a(lp4816
a(lp4817
a(lp4818
a(lp4819
a(lp4820
a(lp4821
a(lp4822
a(lp4823
a(lp4824
a(lp4825
a(lp4826
F-198.19953402944179
aF0.054355187018018114
aF-1.981559716313086
aF-0.40317944538514894
aF-15.953748810915158
aF-21.824479734533497
aF21.341841005551032
aF-1.1995854087842872
aF-96.375446290153377
aF-15.053988899893511
aa(lp4827
a(lp4828
a(lp4829
a(lp4830
a(lp4831
a(lp4832
a(lp4833
a(lp4834
a(lp4835
a(lp4836
a(lp4837
a(lp4838
a(lp4839
a(lp4840
a(lp4841
a(lp4842
a(lp4843
a(lp4844
F-111.85861481521897
aF-0.15697079192023011
aF-1.6861143592450389
aF-193.19481996404875
aF38.594030549177205
aF-32.862538112965467
aF28.476256552778523
aF-0.91846494854053162
aF41.368732617286241
aF-2.1016198559209442
aa(lp4845
a(lp4846
a(lp4847
a(lp4848
a(lp4849
a(lp4850
a(lp4851
F-261.24081742295857
aF0.29416540314741724
aF-18.339681773227312
aF-81.47250376566717
aF-2.3051953235153633
aF52.81900321563171
aF1.9994246258647763
aF-1.1880491257443282
aF-226.80937483698926
aF-21.532513727606784
aa(lp4852
a(lp4853
a(lp4854
a(lp4855
a(lp4856
a(lp4857
a(lp4858
a(lp4859
a(lp4860
a(lp4861
a(lp4862
a(lp4863
a(lp4864
a(lp4865
a(lp4866
a(lp4867
a(lp4868
a(lp4869
a(lp4870
a(lp4871
a(lp4872
a(lp4873
a(lp4874
a(lp4875
a(lp4876
F-420.05359496277703
aF1.2361073831179681
aF8.4148301993103303
aF61.930954009525863
aF4.3377406333533486
aF-37.195846003257316
aF-22.083442341447324
aF1.212387668036996
aF-317.71860531382146
aF-39.52661847828054
aa(lp4877
a(lp4878
a(lp4879
a(lp4880
a(lp4881
a(lp4882
a(lp4883
a(lp4884
a(lp4885
a(lp4886
a(lp4887
a(lp4888
a(lp4889
a(lp4890
F161.79486888034944
aF-0.45522003944142853
aF17.601375557063648
aF-20.391107025119481
aF4.5312678054187927
aF2.3769911372539809
aF-11.902318952650148
aF-1.9970356035514669
aF186.13303502945655
aF17.366225080195363
aa(lp4891
a(lp4892
F247.77592626534783
aF-0.065329075482623011
aF23.636014656602811
aF99.304997025484454
aF-16.137930902715425
aF-5.3729007021274811
aF5.220849352838286
aF1.5207471726341737
aF196.85813077430225
aF13.168332380075753
aa(lp4893
a(lp4894
a(lp4895
a(lp4896
a(lp4897
a(lp4898
a(lp4899
a(lp4900
a(lp4901
a(lp4902
a(lp4903
a(lp4904
a(lp4905
a(lp4906
a(lp4907
a(lp4908
a(lp4909
a(lp4910
a(lp4911
a(lp4912
a(lp4913
a(lp4914
a(lp4915
a(lp4916
a(lp4917
a(lp4918
a(lp4919
a(lp4920
a(lp4921
a(lp4922
a(lp4923
a(lp4924
F285.35700229426197
aF-0.45410555316038881
aF91.716985117784589
aF-39.721546851723133
aF-48.939165964156928
aF5.5525795517041843
aF-0.12035012986189031
aF319.51961823040165
aF33.649372355171181
aa(lp4925
a(lp4926
a(lp4927
a(lp4928
a(lp4929
a(lp4930
a(lp4931
a(lp4932
a(lp4933
a(lp4934
a(lp4935
a(lp4936
a(lp4937
a(lp4938
F328.28721030497832
aF-1.2043057662225465
aF42.73592981718366
aF146.32493434696414
aF-26.405270459051167
aF-96.699646290332453
aF-53.492698226520474
aF5.2412571616144987
aF162.02843005075351
aF22.251537323825232
aa(lp4939
a(lp4940
F534.59993551996376
aF-1.3615135685540736
aF528.1004277435386
aF-125.27257808869763
aF-24.384915064956658
aF-4.6236834805313265
aF14.651594426595693
aF347.62709475444353
aF45.764733158648596
aa(lp4941
a(lp4942
a(lp4943
a(lp4944
a(lp4945
a(lp4946
a(lp4947
a(lp4948
a(lp4949
a(lp4950
a(lp4951
a(lp4952
a(lp4953
a(lp4954
a(lp4955
a(lp4956
a(lp4957
a(lp4958
a(lp4959
a(lp4960
a(lp4961
a(lp4962
a(lp4963
F289.46803034557433
aF-1.4939024239879473
aF13.890908867608687
aF389.75804876884013
aF-126.49608294168502
aF49.994111250839524
aF-9.7924926834025428
aF11.468738847497661
aF99.27562132361345
aF-0.99920054452695695
aa(lp4964
a(lp4965
a(lp4966
a(lp4967
a(lp4968
a(lp4969
a(lp4970
F359.09700901726183
aF-1.9650647331559412
aF155.07422812532923
aF372.29984606312883
aF-18.579281579889084
aF-125.21042611624011
aF61.719251132075215
aF22.238902097626578
aF10.791580429270198
aF-10.246401860314336
aa(lp4971
a(lp4972
a(lp4973
a(lp4974
a(lp4975
a(lp4976
a(lp4977
a(lp4978
a(lp4979
a(lp4980
a(lp4981
a(lp4982
a(lp4983
a(lp4984
a(lp4985
a(lp4986
a(lp4987
a(lp4988
a(lp4989
a(lp4990
a(lp4991
a(lp4992
a(lp4993
a(lp4994
a(lp4995
F397.3683121216709
aF-3.6836986794241966
aF262.9566189682464
aF981.92021713572331
aF-136.29701385298176
aF-174.2405812521497
aF52.413700757369952
aF54.250863712468345
aF44.221071604511053
aF-53.826678225732394
aa(lp4996
a(lp4997
a(lp4998
a(lp4999
a(lp5000
a(lp5001
a(lp5002
F950.43256014282201
aF-3.0239959203370859
aF75.432423352062017
aF2065.8926754180129
aF-789.77537081303944
aF396.78675445298239
aF232.0587048298961
aF-3.6183225304853295
aF212.25428075144492
aF-24.916479235415068
aa(lp5003
a(lp5004
F-68.97359412505466
aF4.1006870787896332
aF23.312472308134602
aF2106.1188931525976
aF-607.92085889715963
aF-992.7941306386856
aF521.65175645768613
aF51.985773552587489
aF88.865047587205481
aF12.603285881596094
aa(lp5005
a(lp5006
a(lp5007
a(lp5008
a(lp5009
a(lp5010
a(lp5011
F-207.12042143600229
aF-1.365676638442892
aF80.598133678222439
aF1397.177007333994
aF-239.74064831122632
aF24.000485865371957
aF-137.6457007040699
aF32.951563611050005
aF21.58581295930162
aF22.780623964990809
aa(lp5012
a(lp5013
a(lp5014
a(lp5015
a(lp5016
a(lp5017
a(lp5018
a(lp5019
a(lp5020
a(lp5021
a(lp5022
a(lp5023
a(lp5024
a(lp5025
a(lp5026
a(lp5027
F673.4191314805571
aF-2.7173129524271644
aF258.23587801454551
aF1109.3641635540052
aF-136.29896660205532
aF-256.03595776857446
aF64.285532452856842
aF-30.783340854156904
aF378.33104435947007
aF66.495818096257153
aa(lp5028
a(lp5029
a(lp5030
a(lp5031
a(lp5032
a(lp5033
a(lp5034
a(lp5035
a(lp5036
F710.79512622418406
aF-4.0926067867985694
aF687.57238977923407
aF3231.9412753167853
aF-351.52019393080991
aF-444.39262296691595
aF-207.0048395808044
aF-3.3351426509398152
aF819.89640818846965
aF83.436404452186252
aa(lp5037
a(lp5038
a(lp5039
a(lp5040
a(lp5041
a(lp5042
a(lp5043
a(lp5044
a(lp5045
a(lp5046
a(lp5047
a(lp5048
a(lp5049
a(lp5050
a(lp5051
a(lp5052
a(lp5053
a(lp5054
a(lp5055
a(lp5056
a(lp5057
a(lp5058
a(lp5059
F1189.2165872495752
aF-3.0879419909979333
aF-13.946691979072057
aF1689.1967788978945
aF-389.99829428121302
aF95.124221388687147
aF-16.507578948221635
aF-34.295371165171673
aF1497.8363537920814
aF103.10435243354732
aa(lp5060
a(lp5061
a(lp5062
a(lp5063
a(lp5064
a(lp5065
a(lp5066
a(lp5067
a(lp5068
F1761.1222574487329
aF0.077932327258167788
aF-136.57265753863612
aF2856.1685098793532
aF-28.156682674307376
aF-399.54464909897069
aF-258.56965066850535
aF-10.478811418579426
aF1831.0255143205723
aF169.91862707982364
aa(lp5069
a(lp5070
a(lp5071
a(lp5072
a(lp5073
a(lp5074
a(lp5075
a(lp5076
a(lp5077
a(lp5078
a(lp5079
a(lp5080
a(lp5081
a(lp5082
a(lp5083
a(lp5084
a(lp5085
a(lp5086
a(lp5087
a(lp5088
a(lp5089
a(lp5090
a(lp5091
a(lp5092
a(lp5093
a(lp5094
a(lp5095
a(lp5096
a(lp5097
a(lp5098
a(lp5099
a(lp5100
a(lp5101
a(lp5102
a(lp5103
a(lp5104
a(lp5105
a(lp5106
a(lp5107
a(lp5108
a(lp5109
a(lp5110
a(lp5111
a(lp5112
a(lp5113
a(lp5114
a(lp5115
a(lp5116
a(lp5117
a(lp5118
a(lp5119
a(lp5120
a(lp5121
a(lp5122
a(lp5123
a(lp5124
a(lp5125
a(lp5126
a(lp5127
a(lp5128
a(lp5129
a(lp5130
a(lp5131
a(lp5132
a(lp5133
a(lp5134
a(lp5135
a(lp5136
a(lp5137
a(lp5138
a(lp5139
a(lp5140
a(lp5141
a(lp5142
a(lp5143
a(lp5144
a(lp5145
a(lp5146
a(lp5147
a(lp5148
a(lp5149
a(lp5150
a(lp5151
a(lp5152
a(lp5153
a(lp5154
a(lp5155
a(lp5156
a(lp5157
a(lp5158
a(lp5159
a(lp5160
a(lp5161
a(lp5162
a(lp5163
a(lp5164
a(lp5165
a(lp5166
a(lp5167
a(lp5168
a(lp5169
a(lp5170
a(lp5171
a(lp5172
a(lp5173
a(lp5174
a(lp5175
a(lp5176
a(lp5177
a(lp5178
a(lp5179
a(lp5180
a(lp5181
a(lp5182
a(lp5183
a(lp5184
a(lp5185
a(lp5186
a(lp5187
a(lp5188
a(lp5189
a(lp5190
a(lp5191
F67.835714823161197
aF-0.0088356433280978308
aF0.42189332027930959
aF-15.945713460752131
aF5.0649863414520269
aF-6.3445398712502765
aF-14.874755382976446
aF0.41688346108514907
aF28.587554945502802
aF1.9807544049399439
aa(lp5192
a(lp5193
a(lp5194
a(lp5195
a(lp5196
a(lp5197
a(lp5198
a(lp5199
a(lp5200
a(lp5201
a(lp5202
a(lp5203
a(lp5204
a(lp5205
a(lp5206
a(lp5207
a(lp5208
a(lp5209
F29.707178050841776
aF-0.12703065266350677
aF18.447692440304309
aF38.591075401939179
aF36.783097989712132
aF6.8829260513325607
aF-1.9689474939355023
aF0.21651427317692651
aF66.071754112329018
aF0.84261255750561759
aa(lp5210
a(lp5211
a(lp5212
a(lp5213
a(lp5214
a(lp5215
a(lp5216
F72.242112914011614
aF0.0085380369441168114
aF0.6522050011170677
aF-2.3116293101921315
aF1.041956010361389
aF8.5143025296829933
aF7.0134129170895676
aF0.089226870336744923
aF11.272916489168949
aF-3.4934948711651259
aa(lp5217
a(lp5218
a(lp5219
a(lp5220
a(lp5221
a(lp5222
a(lp5223
a(lp5224
a(lp5225
a(lp5226
a(lp5227
a(lp5228
a(lp5229
a(lp5230
a(lp5231
a(lp5232
a(lp5233
a(lp5234
a(lp5235
a(lp5236
a(lp5237
a(lp5238
a(lp5239
a(lp5240
a(lp5241
F11.522093212867901
aF0.037509262362789286
aF-0.49185558959052855
aF4.3563148643954719
aF3.7187994794685153
aF-6.3155206175835588
aF-2.9181393412791579
aF0.47003114733712437
aF-42.328753324660795
aF-7.5382703634829795
aa(lp5242
a(lp5243
a(lp5244
a(lp5245
a(lp5246
a(lp5247
a(lp5248
a(lp5249
a(lp5250
a(lp5251
a(lp5252
a(lp5253
a(lp5254
a(lp5255
F-24.393997977156801
aF0.1280366923595011
aF-15.516764428902263
aF4.527422570177464
aF-2.1658186355466569
aF-0.59006135533223869
aF3.7036141709023696
aF0.75622601514169219
aF-59.357496406953203
aF-7.3680078482851741
aa(lp5256
a(lp5257
F95.092828400478169
aF0.016656764856293194
aF-0.098399222103751072
aF-16.114717094062314
aF6.7684114424260144
aF-16.218575837889659
aF-15.70056871180725
aF0.11239316144440181
aF29.804370182962003
aF0.5196426178244451
aa(lp5258
a(lp5259
a(lp5260
a(lp5261
a(lp5262
a(lp5263
a(lp5264
a(lp5265
a(lp5266
a(lp5267
a(lp5268
a(lp5269
a(lp5270
a(lp5271
a(lp5272
a(lp5273
a(lp5274
a(lp5275
a(lp5276
a(lp5277
a(lp5278
a(lp5279
a(lp5280
a(lp5281
a(lp5282
a(lp5283
a(lp5284
a(lp5285
a(lp5286
a(lp5287
a(lp5288
a(lp5289
F-89.504589517730437
aF0.22446018377308974
aF-39.711125410235582
aF14.528330627427977
aF30.356255997787684
aF-3.4123353032100567
aF-0.26358524252145799
aF-154.88397329121995
aF-17.577704447546694
aa(lp5290
a(lp5291
a(lp5292
a(lp5293
a(lp5294
a(lp5295
a(lp5296
a(lp5297
a(lp5298
a(lp5299
a(lp5300
a(lp5301
a(lp5302
a(lp5303
F-38.32809426507211
aF0.39328428291796058
aF-20.548421264532379
aF-26.388521978670809
aF14.849624729862398
aF26.419097987062656
aF3.3399424559377167
aF-1.7034284316430615
aF-87.608453713805545
aF-14.223510003130713
aa(lp5304
a(lp5305
F-86.53186771567789
aF0.49520121336854572
aF-125.41414022848585
aF34.661188053064507
aF22.665214949313395
aF-12.008489846948578
aF-5.0913131488528052
aF-129.41373146446722
aF-12.81614423476185
aa(lp5306
a(lp5307
a(lp5308
a(lp5309
a(lp5310
a(lp5311
a(lp5312
a(lp5313
a(lp5314
a(lp5315
a(lp5316
a(lp5317
a(lp5318
a(lp5319
a(lp5320
a(lp5321
a(lp5322
a(lp5323
a(lp5324
a(lp5325
a(lp5326
a(lp5327
a(lp5328
F-61.2774769592761
aF0.73211694484598411
aF1.0255178040097235
aF-126.74379448185391
aF58.862497809286651
aF20.920747800801109
aF-40.692235359074402
aF-5.0176687693692656
aF-73.478082640576758
aF-12.28775943218352
aa(lp5329
a(lp5330
a(lp5331
a(lp5332
a(lp5333
a(lp5334
a(lp5335
F79.514124617929838
aF0.41892387336872616
aF3.3343839245247864
aF-18.636973120322864
aF48.14450842438589
aF-8.1445954869252546
aF-73.475054862548461
aF2.6969528610365501
aF-45.169090823193869
aF-5.9270834018576579
aa(lp5336
a(lp5337
a(lp5338
a(lp5339
a(lp5340
a(lp5341
a(lp5342
a(lp5343
a(lp5344
a(lp5345
a(lp5346
a(lp5347
a(lp5348
a(lp5349
a(lp5350
a(lp5351
a(lp5352
a(lp5353
a(lp5354
a(lp5355
a(lp5356
a(lp5357
a(lp5358
a(lp5359
a(lp5360
F209.50116947915376
aF2.0348885243492987
aF-92.55890489612284
aF-135.99791515161996
aF119.1328180993878
aF-5.3549584322354349
aF-63.124955573812258
aF-9.7674757171262172
aF-59.134420382633834
aF0.14473968690253969
aa(lp5361
a(lp5362
a(lp5363
a(lp5364
a(lp5365
a(lp5366
a(lp5367
F-269.4107827494463
aF1.526438797583296
aF-31.957279400529615
aF-789.82239966052248
aF353.55332537179152
aF-149.23806830324793
aF-177.89992741157334
aF5.2293005481374166
aF-119.81870233768177
aF3.3702097113064156
aa(lp5368
a(lp5369
F76.491116374199919
aF-0.33013805023074383
aF-36.417799265109352
aF-607.4158278579489
aF177.00097885153809
aF205.73271797275083
aF-136.88310502857348
aF-19.558780195438885
aF-54.271998806143529
aF-3.6689897342512268
aa(lp5370
a(lp5371
a(lp5372
a(lp5373
a(lp5374
a(lp5375
a(lp5376
F116.03016858430237
aF0.35455940405881847
aF-11.238860331275191
aF-239.88462309887382
aF91.916690969640058
aF-4.6911873496924272
aF-64.092970575302388
aF-3.3555554779240993
aF-28.721074940563085
aF-13.414448751802865
aa(lp5377
a(lp5378
a(lp5379
a(lp5380
a(lp5381
a(lp5382
a(lp5383
a(lp5384
a(lp5385
a(lp5386
a(lp5387
a(lp5388
a(lp5389
a(lp5390
a(lp5391
a(lp5392
F1.851976794142729
aF0.54835247453866032
aF-48.976314914739305
aF-136.21624530557597
aF34.024655448661179
aF30.719351240549031
aF-41.849837373320042
aF7.2156641550691347
aF-86.989273384574517
aF-15.39133398509307
aa(lp5393
a(lp5394
a(lp5395
a(lp5396
a(lp5397
a(lp5398
a(lp5399
a(lp5400
a(lp5401
F99.148064691689797
aF0.54717972375328827
aF-53.169964076005272
aF-351.51374362385468
aF88.518611818244608
aF74.232312385902333
aF-12.533109128298747
aF2.9683960178772395
aF-120.85454486054914
aF-19.373767656816199
aa(lp5402
a(lp5403
a(lp5404
a(lp5405
a(lp5406
a(lp5407
a(lp5408
a(lp5409
a(lp5410
a(lp5411
a(lp5412
a(lp5413
a(lp5414
a(lp5415
a(lp5416
a(lp5417
a(lp5418
a(lp5419
a(lp5420
a(lp5421
a(lp5422
a(lp5423
a(lp5424
F-357.57938192659822
aF0.9137373524481518
aF3.3473455118837592
aF-390.19185251731869
aF99.983805768033562
aF-61.201843948310852
aF1.3090449613173405
aF10.058599997364581
aF-425.80964532135113
aF-34.523816339060431
aa(lp5425
a(lp5426
a(lp5427
a(lp5428
a(lp5429
a(lp5430
a(lp5431
a(lp5432
a(lp5433
F311.19677252888778
aF0.0017763568394002505
aF-11.497847296482178
aF-28.505951377155725
aF94.925345450747045
aF-36.014197490885635
aF-59.644924021995394
aF-0.5062453567461489
aF88.145568710729094
aF-1.5575654543908968
aa(lp5434
a(lp5435
a(lp5436
a(lp5437
a(lp5438
a(lp5439
a(lp5440
a(lp5441
a(lp5442
a(lp5443
a(lp5444
a(lp5445
a(lp5446
a(lp5447
a(lp5448
a(lp5449
a(lp5450
a(lp5451
a(lp5452
a(lp5453
a(lp5454
a(lp5455
a(lp5456
a(lp5457
a(lp5458
a(lp5459
a(lp5460
a(lp5461
a(lp5462
a(lp5463
a(lp5464
a(lp5465
a(lp5466
a(lp5467
a(lp5468
a(lp5469
a(lp5470
a(lp5471
a(lp5472
a(lp5473
a(lp5474
a(lp5475
a(lp5476
a(lp5477
a(lp5478
a(lp5479
a(lp5480
a(lp5481
a(lp5482
a(lp5483
a(lp5484
a(lp5485
a(lp5486
a(lp5487
a(lp5488
a(lp5489
a(lp5490
a(lp5491
a(lp5492
a(lp5493
a(lp5494
a(lp5495
a(lp5496
a(lp5497
a(lp5498
a(lp5499
a(lp5500
a(lp5501
a(lp5502
a(lp5503
a(lp5504
a(lp5505
a(lp5506
a(lp5507
a(lp5508
a(lp5509
a(lp5510
a(lp5511
a(lp5512
a(lp5513
a(lp5514
a(lp5515
a(lp5516
a(lp5517
a(lp5518
a(lp5519
a(lp5520
a(lp5521
a(lp5522
a(lp5523
a(lp5524
a(lp5525
a(lp5526
a(lp5527
a(lp5528
a(lp5529
a(lp5530
a(lp5531
a(lp5532
a(lp5533
a(lp5534
a(lp5535
a(lp5536
a(lp5537
a(lp5538
a(lp5539
a(lp5540
a(lp5541
a(lp5542
a(lp5543
a(lp5544
a(lp5545
a(lp5546
a(lp5547
a(lp5548
a(lp5549
a(lp5550
a(lp5551
a(lp5552
a(lp5553
a(lp5554
a(lp5555
a(lp5556
F-251.62522891974959
aF0.050510706728346122
aF0.26261073315936301
aF-21.840442876452926
aF-6.3373445158276809
aF70.45920913384407
aF55.279186916834533
aF1.9399735151637287
aF-145.23650015973999
aF-20.668921330013745
aa(lp5557
a(lp5558
a(lp5559
a(lp5560
a(lp5561
a(lp5562
a(lp5563
a(lp5564
a(lp5565
a(lp5566
a(lp5567
a(lp5568
a(lp5569
a(lp5570
a(lp5571
a(lp5572
a(lp5573
a(lp5574
F597.15403324389627
aF-0.82933624412362406
aF82.896596609316475
aF-32.887444234575014
aF6.894268977930551
aF-449.8420224763322
aF-34.215425159800361
aF-8.4215599827075494
aF350.83223153264953
aF19.675429996368621
aa(lp5575
a(lp5576
a(lp5577
a(lp5578
a(lp5579
a(lp5580
a(lp5581
F445.04316072391248
aF-1.3399642284639413
aF59.841579869157613
aF52.729907551452015
aF8.4906968567111107
aF385.69891387396638
aF1.0676224349026597
aF5.4687419037691143
aF522.04183340620602
aF48.749564385275335
aa(lp5582
a(lp5583
a(lp5584
a(lp5585
a(lp5586
a(lp5587
a(lp5588
a(lp5589
a(lp5590
a(lp5591
a(lp5592
a(lp5593
a(lp5594
a(lp5595
a(lp5596
a(lp5597
a(lp5598
a(lp5599
a(lp5600
a(lp5601
a(lp5602
a(lp5603
a(lp5604
a(lp5605
a(lp5606
F273.43469444218726
aF-0.81450881594946622
aF-8.6747357297412009
aF-37.171880595820994
aF-6.2880862738978749
aF51.873119355505537
aF8.4721901938422661
aF0.36402778569311067
aF244.77034235026451
aF31.550080281661508
aa(lp5607
a(lp5608
a(lp5609
a(lp5610
a(lp5611
a(lp5612
a(lp5613
a(lp5614
a(lp5615
a(lp5616
a(lp5617
a(lp5618
a(lp5619
a(lp5620
F13.140764343333444
aF-0.29588507199918013
aF54.888460709889841
aF2.3819809236158562
aF-0.58493379029300741
aF116.85124221560983
aF-14.643706447436955
aF-1.2305946484048036
aF117.61484040029302
aF16.841868810679728
aa(lp5621
a(lp5622
F-187.29416386698006
aF-0.43647827574488929
aF22.773881935833629
aF-5.3582952963537878
aF-16.222472765115015
aF-26.025289256992323
aF34.805665749537695
aF0.43479408962099342
aF-24.958383937345729
aF4.4321444958583811
aa(lp5623
a(lp5624
a(lp5625
a(lp5626
a(lp5627
a(lp5628
a(lp5629
a(lp5630
a(lp5631
a(lp5632
a(lp5633
a(lp5634
a(lp5635
a(lp5636
a(lp5637
a(lp5638
a(lp5639
a(lp5640
a(lp5641
a(lp5642
a(lp5643
a(lp5644
a(lp5645
a(lp5646
a(lp5647
a(lp5648
a(lp5649
a(lp5650
a(lp5651
a(lp5652
a(lp5653
a(lp5654
F-143.34136189120272
aF0.51659920785596114
aF-48.963589271977526
aF30.375060866560943
aF68.534172292800122
aF3.853372021467294
aF-0.2208436100659128
aF-287.23269167585386
aF-28.26487399687494
aa(lp5655
a(lp5656
a(lp5657
a(lp5658
a(lp5659
a(lp5660
a(lp5661
a(lp5662
a(lp5663
a(lp5664
a(lp5665
a(lp5666
a(lp5667
a(lp5668
F-462.35862658505766
aF1.5274057574288236
aF-72.546069063150753
aF-96.716003383789939
aF26.431740707266727
aF35.084743643665206
aF58.079133502531022
aF-10.036518283129681
aF-267.19614218961851
aF-39.345797553380635
aa(lp5669
a(lp5670
F-81.801481321974734
aF0.44826808931475171
aF-24.44021269809582
aF22.679087052779323
aF208.29332072480611
aF34.790783232097056
aF6.0318424033312112
aF-126.07250674534498
aF-4.1133855432917699
aa(lp5671
a(lp5672
a(lp5673
a(lp5674
a(lp5675
a(lp5676
a(lp5677
a(lp5678
a(lp5679
a(lp5680
a(lp5681
a(lp5682
a(lp5683
a(lp5684
a(lp5685
a(lp5686
a(lp5687
a(lp5688
a(lp5689
a(lp5690
a(lp5691
a(lp5692
a(lp5693
F-63.275948569696538
aF-0.41481360568695891
aF7.729176854098796
aF49.940798518832707
aF20.924468469019075
aF267.57600632976164
aF-58.852096351813543
aF3.5674093012971753
aF-1.4680705540115468
aF-1.3109377583475634
aa(lp5694
a(lp5695
a(lp5696
a(lp5697
a(lp5698
a(lp5699
a(lp5700
F-159.37984976233111
aF0.75524919651570599
aF-47.378747636273033
aF-125.30888735540202
aF-8.162818332380084
aF52.26281230008567
aF2.1747564193930202
aF-9.0555156706528805
aF5.8975480499157129
aF4.3842626418211239
aa(lp5701
a(lp5702
a(lp5703
a(lp5704
a(lp5705
a(lp5706
a(lp5707
a(lp5708
a(lp5709
a(lp5710
a(lp5711
a(lp5712
a(lp5713
a(lp5714
a(lp5715
a(lp5716
a(lp5717
a(lp5718
a(lp5719
a(lp5720
a(lp5721
a(lp5722
a(lp5723
a(lp5724
a(lp5725
F-220.33827846712484
aF1.2005108018797728
aF-44.355509132287807
aF-174.16245352563919
aF-5.3103283548239233
aF125.79025661096921
aF-19.378802207370427
aF-8.714880017635096
aF-21.760687829441849
aF11.246743092385714
aa(lp5726
a(lp5727
a(lp5728
a(lp5729
a(lp5730
a(lp5731
a(lp5732
F118.36480968696605
aF-0.5072212871937154
aF-49.781286293182347
aF396.44083216217041
aF-149.06460936714439
aF216.84143902689357
aF25.640106926516637
aF0.007752021247142693
aF28.696660692162368
aF0.34883154143017236
aa(lp5733
a(lp5734
F-155.83939045882289
aF-5.8824383586397744
aF-17.528384432807798
aF-992.48009348684718
aF205.82066326824133
aF413.3099395176032
aF-421.14726994668672
aF-28.186924794226798
aF-112.11890722506723
aF-18.566436210676329
aa(lp5735
a(lp5736
a(lp5737
a(lp5738
a(lp5739
a(lp5740
a(lp5741
F173.98064144913405
aF-0.04063842595769529
aF6.2388419763692582
aF23.781364077990474
aF-4.6295738798107777
aF190.17355867845254
aF-20.858680471746993
aF1.8692496439598472
aF24.699196288224812
aF-4.6794061958621569
aa(lp5742
a(lp5743
a(lp5744
a(lp5745
a(lp5746
a(lp5747
a(lp5748
a(lp5749
a(lp5750
a(lp5751
a(lp5752
a(lp5753
a(lp5754
a(lp5755
a(lp5756
a(lp5757
F-158.74422096828766
aF0.77756956429197999
aF-80.181063832895916
aF-256.04355755604047
aF30.744991796893828
aF51.318474625361432
aF-22.263051668858225
aF7.6597977738401823
aF-111.66229016978946
aF-18.540168778002908
aa(lp5758
a(lp5759
a(lp5760
a(lp5761
a(lp5762
a(lp5763
a(lp5764
a(lp5765
a(lp5766
F-192.60687835753743
aF1.1627456331098074
aF-144.84183168406162
aF-444.52465601807489
aF74.230568003486042
aF-275.88738333861329
aF30.107895554465358
aF-4.2199886252092256
aF-156.86273329151845
aF-2.5030281847193692
aa(lp5767
a(lp5768
a(lp5769
a(lp5770
a(lp5771
a(lp5772
a(lp5773
a(lp5774
a(lp5775
a(lp5776
a(lp5777
a(lp5778
a(lp5779
a(lp5780
a(lp5781
a(lp5782
a(lp5783
a(lp5784
a(lp5785
a(lp5786
a(lp5787
a(lp5788
a(lp5789
F908.68542912403427
aF-1.0503960368168919
aF-3.7077114711792092
aF95.134990374390327
aF-61.16406225942228
aF129.47366059279375
aF-12.58692847727616
aF-1.9711542620370892
aF269.30120284873738
aF35.140623566576323
aa(lp5790
a(lp5791
a(lp5792
a(lp5793
a(lp5794
a(lp5795
a(lp5796
a(lp5797
a(lp5798
F-473.4623658464443
aF2.3320552600125666
aF-73.335205286184646
aF-399.3181167061266
aF-36.060565378193132
aF-2545.4338967279
aF-173.37726632149497
aF-30.178730980878754
aF-344.07062656782728
aF-41.783491155911179
aa(lp5799
a(lp5800
a(lp5801
a(lp5802
a(lp5803
a(lp5804
a(lp5805
a(lp5806
a(lp5807
a(lp5808
a(lp5809
a(lp5810
a(lp5811
a(lp5812
a(lp5813
a(lp5814
a(lp5815
a(lp5816
a(lp5817
a(lp5818
a(lp5819
a(lp5820
a(lp5821
a(lp5822
a(lp5823
a(lp5824
a(lp5825
a(lp5826
a(lp5827
a(lp5828
a(lp5829
a(lp5830
a(lp5831
a(lp5832
a(lp5833
a(lp5834
a(lp5835
a(lp5836
a(lp5837
a(lp5838
a(lp5839
a(lp5840
a(lp5841
a(lp5842
a(lp5843
a(lp5844
a(lp5845
a(lp5846
a(lp5847
a(lp5848
a(lp5849
a(lp5850
a(lp5851
a(lp5852
a(lp5853
a(lp5854
a(lp5855
a(lp5856
a(lp5857
a(lp5858
a(lp5859
a(lp5860
a(lp5861
a(lp5862
a(lp5863
a(lp5864
a(lp5865
a(lp5866
a(lp5867
a(lp5868
a(lp5869
a(lp5870
a(lp5871
a(lp5872
a(lp5873
a(lp5874
a(lp5875
a(lp5876
a(lp5877
a(lp5878
a(lp5879
a(lp5880
a(lp5881
a(lp5882
a(lp5883
a(lp5884
a(lp5885
a(lp5886
a(lp5887
a(lp5888
a(lp5889
a(lp5890
a(lp5891
a(lp5892
a(lp5893
a(lp5894
a(lp5895
a(lp5896
a(lp5897
a(lp5898
a(lp5899
a(lp5900
a(lp5901
a(lp5902
a(lp5903
a(lp5904
a(lp5905
a(lp5906
a(lp5907
a(lp5908
a(lp5909
a(lp5910
a(lp5911
a(lp5912
a(lp5913
a(lp5914
a(lp5915
a(lp5916
a(lp5917
a(lp5918
a(lp5919
a(lp5920
a(lp5921
F-437.87445473952857
aF0.074032513452948479
aF-0.83864826194712805
aF21.332819066799402
aF-14.879307030923883
aF55.288393419061777
aF35.978959012084033
aF-0.93622247732128017
aF-153.49458823976647
aF-18.174158356032422
aa(lp5922
a(lp5923
a(lp5924
a(lp5925
a(lp5926
a(lp5927
a(lp5928
a(lp5929
a(lp5930
a(lp5931
a(lp5932
a(lp5933
a(lp5934
a(lp5935
a(lp5936
a(lp5937
a(lp5938
a(lp5939
F97.181196423434812
aF-0.69647860811983264
aF-141.94342519147085
aF28.470151747228556
aF-1.9639198711729478
aF-34.194230380535373
aF-227.13337877178219
aF-3.9712460875307443
aF185.31298984214573
aF0.15940422315452452
aa(lp5940
a(lp5941
a(lp5942
a(lp5943
a(lp5944
a(lp5945
a(lp5946
F-270.11009664512642
aF0.065478999999868392
aF3.5891662530929125
aF1.9675853835110502
aF7.0126355389277251
aF1.1327595306198646
aF12.00675190382583
aF0.90263037044735484
aF26.258196328399208
aF5.2763143187917194
aa(lp5947
a(lp5948
a(lp5949
a(lp5950
a(lp5951
a(lp5952
a(lp5953
a(lp5954
a(lp5955
a(lp5956
a(lp5957
a(lp5958
a(lp5959
a(lp5960
a(lp5961
a(lp5962
a(lp5963
a(lp5964
a(lp5965
a(lp5966
a(lp5967
a(lp5968
a(lp5969
a(lp5970
a(lp5971
F119.11319988122671
aF-0.42244743259090001
aF-1.8284363134668524
aF-22.079822481479994
aF-2.9028636161498866
aF8.481022684136974
aF10.278983708644773
aF-1.2307121988186509
aF150.50989785603264
aF21.427207164137485
aa(lp5972
a(lp5973
a(lp5974
a(lp5975
a(lp5976
a(lp5977
a(lp5978
a(lp5979
a(lp5980
a(lp5981
a(lp5982
a(lp5983
a(lp5984
a(lp5985
F-111.05823238821699
aF0.14196714914760378
aF19.239199700038512
aF-11.908416874817362
aF3.7087514392908361
aF-14.645977230998142
aF7.3795734412129832
aF0.44358108297615217
aF-54.326520793068767
aF-2.3370330559657759
aa(lp5986
a(lp5987
F-100.81215116031217
aF-0.061544636054122748
aF9.8600528630754525
aF5.2457427734964313
aF-15.709709799693883
aF34.795266934395386
aF28.701450194290601
aF-0.3806474246914604
aF63.810337547209883
aF4.0742501816737331
aa(lp5988
a(lp5989
a(lp5990
a(lp5991
a(lp5992
a(lp5993
a(lp5994
a(lp5995
a(lp5996
a(lp5997
a(lp5998
a(lp5999
a(lp6000
a(lp6001
a(lp6002
a(lp6003
a(lp6004
a(lp6005
a(lp6006
a(lp6007
a(lp6008
a(lp6009
a(lp6010
a(lp6011
a(lp6012
a(lp6013
a(lp6014
a(lp6015
a(lp6016
a(lp6017
a(lp6018
a(lp6019
F-87.343287535901482
aF-0.046304826639698149
aF5.5718651026381849
aF-3.427161576752269
aF3.8381559264166754
aF-2.9733416617716557
aF0.3794360381448314
aF48.51467583222302
aF10.175781817167717
aa(lp6020
a(lp6021
a(lp6022
a(lp6023
a(lp6024
a(lp6025
a(lp6026
a(lp6027
a(lp6028
a(lp6029
a(lp6030
a(lp6031
a(lp6032
a(lp6033
F-242.06944897464666
aF0.60977303206755096
aF-21.916730297277809
aF-53.437810665357688
aF3.2903049174137777
aF57.94349906551588
aF37.256238094585115
aF-2.6003977637856224
aF-45.129443693170401
aF-5.3675894395865953
aa(lp6034
a(lp6035
F-40.706380088906258
aF-0.1882208167103272
aF-4.546822518491922
aF-12.040559527193295
aF34.758273415036456
aF30.771887837843792
aF2.9570635273756807
aF88.877671711173889
aF22.136903243819006
aa(lp6036
a(lp6037
a(lp6038
a(lp6039
a(lp6040
a(lp6041
a(lp6042
a(lp6043
a(lp6044
a(lp6045
a(lp6046
a(lp6047
a(lp6048
a(lp6049
a(lp6050
a(lp6051
a(lp6052
a(lp6053
a(lp6054
a(lp6055
a(lp6056
a(lp6057
a(lp6058
F101.76496445524208
aF-0.77457968927774346
aF-3.4725886166597775
aF-9.8844111562357284
aF-40.558891356567983
aF-58.828582893966086
aF128.09093945520544
aF2.9253953925945098
aF69.756902121298481
aF17.716666889100452
aa(lp6059
a(lp6060
a(lp6061
a(lp6062
a(lp6063
a(lp6064
a(lp6065
F-38.083427877921849
aF-1.8992202477363662
aF62.615676466037939
aF61.665714223835266
aF-73.45166883609977
aF2.246818375795101
aF202.10691067390485
aF2.472121973795538
aF119.86250676443433
aF7.9665935182049452
aa(lp6066
a(lp6067
a(lp6068
a(lp6069
a(lp6070
a(lp6071
a(lp6072
a(lp6073
a(lp6074
a(lp6075
a(lp6076
a(lp6077
a(lp6078
a(lp6079
a(lp6080
a(lp6081
a(lp6082
a(lp6083
a(lp6084
a(lp6085
a(lp6086
a(lp6087
a(lp6088
a(lp6089
a(lp6090
F-180.0130497997543
aF-2.1477612577314176
aF107.56216521912165
aF52.583364151814749
aF-63.229410152132459
aF-19.469485046386126
aF-4.0882563112631942
aF7.6295771478385177
aF69.067862007443637
aF-5.7183585866482645
aa(lp6091
a(lp6092
a(lp6093
a(lp6094
a(lp6095
a(lp6096
a(lp6097
F-17.12191206593161
aF-1.0640626157965016
aF8.5158465168433395
aF231.86309476841416
aF-177.7699832672397
aF25.712706275271557
aF173.31291033428897
aF-6.4984170933257701
aF96.024486495593919
aF6.9646496569930605
aa(lp6098
a(lp6099
F-74.596582066988049
aF0.31155025226325961
aF55.087400596676162
aF521.22549050181988
aF-136.99156795610179
aF-421.14161544759554
aF214.97112356883008
aF20.997903504849091
aF64.845468727980915
aF-15.559587041025225
aa(lp6100
a(lp6101
a(lp6102
a(lp6103
a(lp6104
a(lp6105
a(lp6106
F-146.91774445907413
aF-0.23046915487157094
aF-8.0474272579067474
aF-137.81873349216767
aF-64.060102289431597
aF-20.819989998699384
aF173.88273150231726
aF-4.6457977020963881
aF50.622703184899365
aF11.161530011349896
aa(lp6107
a(lp6108
a(lp6109
a(lp6110
a(lp6111
a(lp6112
a(lp6113
a(lp6114
a(lp6115
a(lp6116
a(lp6117
a(lp6118
a(lp6119
a(lp6120
a(lp6121
a(lp6122
F-138.46393631666842
aF-0.75033117497014246
aF66.279348764908264
aF64.240896868739128
aF-41.867544453566552
aF-22.237241914524475
aF59.763144655278211
aF-10.623985957636251
aF126.0957883886249
aF23.000513849069648
aa(lp6123
a(lp6124
a(lp6125
a(lp6126
a(lp6127
a(lp6128
a(lp6129
a(lp6130
a(lp6131
F-225.67538966455913
aF-0.18493935272090312
aF-93.940515988322204
aF-207.1065113185
aF-12.518927583471395
aF30.144995477598968
aF-109.63353567206013
aF-4.2180246850875847
aF28.777018634684737
aF6.8987835888378868
aa(lp6132
a(lp6133
a(lp6134
a(lp6135
a(lp6136
a(lp6137
a(lp6138
a(lp6139
a(lp6140
a(lp6141
a(lp6142
a(lp6143
a(lp6144
a(lp6145
a(lp6146
a(lp6147
a(lp6148
a(lp6149
a(lp6150
a(lp6151
a(lp6152
a(lp6153
a(lp6154
F-225.44518412104253
aF0.19132198048055216
aF1.4356627886513706
aF-16.606385777606647
aF1.3302173584861521
aF-12.626864709375241
aF104.16447366878856
aF1.9919236038390409
aF-58.574216055262696
aF2.6015200660367555
aa(lp6155
a(lp6156
a(lp6157
a(lp6158
a(lp6159
a(lp6160
a(lp6161
a(lp6162
a(lp6163
F-622.38509457301916
aF-0.15072814107952581
aF14.314205998289253
aF-258.77695080112062
aF-59.697860876894993
aF-173.28130965665878
aF197.94813255202826
aF-4.8396906038306042
aF-166.71129756673508
aF-15.703809452816131
aa(lp6164
a(lp6165
a(lp6166
a(lp6167
a(lp6168
a(lp6169
a(lp6170
a(lp6171
a(lp6172
a(lp6173
a(lp6174
a(lp6175
a(lp6176
a(lp6177
a(lp6178
a(lp6179
a(lp6180
a(lp6181
a(lp6182
a(lp6183
a(lp6184
a(lp6185
a(lp6186
a(lp6187
a(lp6188
a(lp6189
a(lp6190
a(lp6191
a(lp6192
a(lp6193
a(lp6194
a(lp6195
a(lp6196
a(lp6197
a(lp6198
a(lp6199
a(lp6200
a(lp6201
a(lp6202
a(lp6203
a(lp6204
a(lp6205
a(lp6206
a(lp6207
a(lp6208
a(lp6209
a(lp6210
a(lp6211
a(lp6212
a(lp6213
a(lp6214
a(lp6215
a(lp6216
a(lp6217
a(lp6218
a(lp6219
a(lp6220
a(lp6221
a(lp6222
a(lp6223
a(lp6224
a(lp6225
a(lp6226
a(lp6227
a(lp6228
a(lp6229
a(lp6230
a(lp6231
a(lp6232
a(lp6233
a(lp6234
a(lp6235
a(lp6236
a(lp6237
a(lp6238
a(lp6239
a(lp6240
a(lp6241
a(lp6242
a(lp6243
a(lp6244
a(lp6245
a(lp6246
a(lp6247
a(lp6248
a(lp6249
a(lp6250
a(lp6251
a(lp6252
a(lp6253
a(lp6254
a(lp6255
a(lp6256
a(lp6257
a(lp6258
a(lp6259
a(lp6260
a(lp6261
a(lp6262
a(lp6263
a(lp6264
a(lp6265
a(lp6266
a(lp6267
a(lp6268
a(lp6269
a(lp6270
a(lp6271
a(lp6272
a(lp6273
a(lp6274
a(lp6275
a(lp6276
a(lp6277
a(lp6278
a(lp6279
a(lp6280
a(lp6281
a(lp6282
a(lp6283
a(lp6284
a(lp6285
a(lp6286
F12.465981491516231
aF0.0189961490981716
aF-0.23530078441247326
aF-1.1998137039448409
aF0.4185625734898224
aF1.9240426252231657
aF-0.9516683940891113
aF0.67662001002055661
aF-24.478436067010279
aF-4.0545952262327489
aa(lp6287
a(lp6288
a(lp6289
a(lp6290
a(lp6291
a(lp6292
a(lp6293
a(lp6294
a(lp6295
a(lp6296
a(lp6297
a(lp6298
a(lp6299
a(lp6300
a(lp6301
a(lp6302
a(lp6303
a(lp6304
F6.9739407582147805
aF0.039938008455919771
aF-0.4354069327305865
aF-0.91844838401300422
aF0.21332042798860584
aF-8.4192144367278843
aF-3.9685567276848133
aF0.19550310259575099
aF-15.270072895035014
aF-1.9254818628411385
aa(lp6305
a(lp6306
a(lp6307
a(lp6308
a(lp6309
a(lp6310
a(lp6311
F4.1399898342842079
aF0.012517312186766105
aF-0.49338781116237129
aF-1.2173929697656405
aF0.089671958747317149
aF5.5475364690860118
aF0.90925807438857476
aF0.091482951769528142
aF-7.1407014579083494
aF-0.99637798567364655
aa(lp6312
a(lp6313
a(lp6314
a(lp6315
a(lp6316
a(lp6317
a(lp6318
a(lp6319
a(lp6320
a(lp6321
a(lp6322
a(lp6323
a(lp6324
a(lp6325
a(lp6326
a(lp6327
a(lp6328
a(lp6329
a(lp6330
a(lp6331
a(lp6332
a(lp6333
a(lp6334
a(lp6335
a(lp6336
F-5.7301980660451335
aF0.028278662744796179
aF0.05853191265003943
aF1.2038341212772252
aF0.47039052653019553
aF0.36274141468339849
aF-1.2311858033076106
aF0.11927768772679315
aF-14.849132673466769
aF-2.2217035711147304
aa(lp6337
a(lp6338
a(lp6339
a(lp6340
a(lp6341
a(lp6342
a(lp6343
a(lp6344
a(lp6345
a(lp6346
a(lp6347
a(lp6348
a(lp6349
a(lp6350
F-11.135480881829807
aF0.061663985029269952
aF-1.0238017544850209
aF-2.0108127163354084
aF0.75924760922774226
aF-1.2404452465197835
aF0.44710013469284604
aF0.34117140224054765
aF-27.520075662756938
aF-3.0682151930250257
aa(lp6351
a(lp6352
F13.162865897253795
aF0.0017515544570301245
aF1.0650901272057922
aF1.5415183740596916
aF0.11464083571333106
aF0.43537292659934224
aF-0.37515603956705945
aF0.076067671606061538
aF9.1115699457633426
aF0.55201220816591956
aa(lp6353
a(lp6354
a(lp6355
a(lp6356
a(lp6357
a(lp6358
a(lp6359
a(lp6360
a(lp6361
a(lp6362
a(lp6363
a(lp6364
a(lp6365
a(lp6366
a(lp6367
a(lp6368
a(lp6369
a(lp6370
a(lp6371
a(lp6372
a(lp6373
a(lp6374
a(lp6375
a(lp6376
a(lp6377
a(lp6378
a(lp6379
a(lp6380
a(lp6381
a(lp6382
a(lp6383
a(lp6384
F-17.802022400648099
aF-0.005502009958746612
aF-0.12165164431365838
aF-0.2626942885441963
aF-0.21647709180783181
aF0.37760299331779379
aF0.11442291558694251
aF2.136333376867583
aF0.47147358239740811
aa(lp6385
a(lp6386
a(lp6387
a(lp6388
a(lp6389
a(lp6390
a(lp6391
a(lp6392
a(lp6393
a(lp6394
a(lp6395
a(lp6396
a(lp6397
a(lp6398
F24.170042467464015
aF-0.092606322610322422
aF4.7842457218116863
aF5.2484030010901961
aF-1.7144949349123806
aF-10.050648868720202
aF-2.6043048884094588
aF0.44741156335348364
aF14.441901330375373
aF2.3902129331343502
aa(lp6399
a(lp6400
F-3.3025462364832947
aF-0.078132966763178047
aF14.729557085146894
aF-5.1217325491847987
aF5.9989380574165807
aF2.981385094358302
aF0.85319467046929276
aF22.239331443074661
aF3.0720963550834313
aa(lp6401
a(lp6402
a(lp6403
a(lp6404
a(lp6405
a(lp6406
a(lp6407
a(lp6408
a(lp6409
a(lp6410
a(lp6411
a(lp6412
a(lp6413
a(lp6414
a(lp6415
a(lp6416
a(lp6417
a(lp6418
a(lp6419
a(lp6420
a(lp6421
a(lp6422
a(lp6423
F3.9279696495420069
aF-0.04754322491251628
aF-0.045457027031403641
aF11.325812654394696
aF-4.9282710579134914
aF3.5814103349629534
aF2.8617061609281791
aF0.43385487424885127
aF5.9526485740590829
aF0.48395695229075386
aa(lp6424
a(lp6425
a(lp6426
a(lp6427
a(lp6428
a(lp6429
a(lp6430
F32.362369922767087
aF-0.15093858385384351
aF13.070767862499721
aF22.116617759415647
aF2.6866224300814423
aF-8.9972848144048712
aF2.4549072802360072
aF1.8510085630918383
aF-0.1553259493247694
aF-1.0610056361270992
aa(lp6431
a(lp6432
a(lp6433
a(lp6434
a(lp6435
a(lp6436
a(lp6437
a(lp6438
a(lp6439
a(lp6440
a(lp6441
a(lp6442
a(lp6443
a(lp6444
a(lp6445
a(lp6446
a(lp6447
a(lp6448
a(lp6449
a(lp6450
a(lp6451
a(lp6452
a(lp6453
a(lp6454
a(lp6455
F9.8174093521308237
aF-0.27271100933035086
aF17.814430419704763
aF54.460608511774922
aF-9.8202502352151555
aF-8.7738908138845773
aF7.6607208132628557
aF3.0555453944813848
aF3.7073796921305302
aF-2.7895004528488698
aa(lp6456
a(lp6457
a(lp6458
a(lp6459
a(lp6460
a(lp6461
a(lp6462
F4.6823845467613978
aF0.032770408608939761
aF-0.86805123089561675
aF-3.8513926048366898
aF5.3318478632213839
aF-0.033215097339223121
aF-6.5616257538536615
aF0.23946307159405933
aF-3.2189579890484765
aF-0.49254994527458962
aa(lp6463
a(lp6464
F-11.951909417717843
aF0.034239100443755888
aF2.67061199821228
aF51.832283887165431
aF-19.527853645229243
aF-28.140451480140882
aF20.953756241226529
aF1.5883701465213562
aF6.2945543000125781
aF0.61253961902707488
aa(lp6465
a(lp6466
a(lp6467
a(lp6468
a(lp6469
a(lp6470
a(lp6471
F6.4652647235874383
aF-0.018368806475876909
aF1.5088097327087269
aF32.818221840091866
aF-3.3300535107194662
aF1.8826471936961298
aF-4.6466014036461445
aF0.6853597245282117
aF1.7456224021827893
aF-0.032798719296067702
aa(lp6472
a(lp6473
a(lp6474
a(lp6475
a(lp6476
a(lp6477
a(lp6478
a(lp6479
a(lp6480
a(lp6481
a(lp6482
a(lp6483
a(lp6484
a(lp6485
a(lp6486
a(lp6487
F-3.908316870138151
aF0.14399421655042488
aF-13.068037030272706
aF-30.617200641458453
aF7.1861894213043342
aF7.611695762577142
aF-10.577839426595403
aF1.8684976677008081
aF-22.397952581520997
aF-4.0274638291037945
aa(lp6488
a(lp6489
a(lp6490
a(lp6491
a(lp6492
a(lp6493
a(lp6494
a(lp6495
a(lp6496
F13.23867597768924
aF0.058241589329099952
aF0.82448887717134767
aF-3.4749660482447098
aF2.9803626677704642
aF-4.1849092635715124
aF-4.2135330780013192
aF0.57268771946894503
aF-14.31762060022379
aF-1.8234650678294884
aa(lp6497
a(lp6498
a(lp6499
a(lp6500
a(lp6501
a(lp6502
a(lp6503
a(lp6504
a(lp6505
a(lp6506
a(lp6507
a(lp6508
a(lp6509
a(lp6510
a(lp6511
a(lp6512
a(lp6513
a(lp6514
a(lp6515
a(lp6516
a(lp6517
a(lp6518
a(lp6519
F-16.655632073536708
aF0.13759979822225432
aF-0.8235602422246302
aF-34.330734521859085
aF10.065553013305362
aF-1.9790380889617154
aF1.9855068700280754
aF2.114694197530298
aF-70.460910528424847
aF-7.7778086193802665
aa(lp6520
a(lp6521
a(lp6522
a(lp6523
a(lp6524
a(lp6525
a(lp6526
a(lp6527
a(lp6528
F76.239270097033796
aF0.0030026203745592284
aF0.91850829164741299
aF-10.383324289264806
aF-0.50810675666923544
aF-30.23141794677997
aF-4.8557856402453581
aF0.47458557084212316
aF-27.386461276535101
aF-3.7794294360793401
aa(lp6529
a(lp6530
a(lp6531
a(lp6532
a(lp6533
a(lp6534
a(lp6535
a(lp6536
a(lp6537
a(lp6538
a(lp6539
a(lp6540
a(lp6541
a(lp6542
a(lp6543
a(lp6544
a(lp6545
a(lp6546
a(lp6547
a(lp6548
a(lp6549
a(lp6550
a(lp6551
a(lp6552
a(lp6553
a(lp6554
a(lp6555
a(lp6556
a(lp6557
a(lp6558
a(lp6559
a(lp6560
a(lp6561
a(lp6562
a(lp6563
a(lp6564
a(lp6565
a(lp6566
a(lp6567
a(lp6568
a(lp6569
a(lp6570
a(lp6571
a(lp6572
a(lp6573
a(lp6574
a(lp6575
a(lp6576
a(lp6577
a(lp6578
a(lp6579
a(lp6580
a(lp6581
a(lp6582
a(lp6583
a(lp6584
a(lp6585
a(lp6586
a(lp6587
a(lp6588
a(lp6589
a(lp6590
a(lp6591
a(lp6592
a(lp6593
a(lp6594
a(lp6595
a(lp6596
a(lp6597
a(lp6598
a(lp6599
a(lp6600
a(lp6601
a(lp6602
a(lp6603
a(lp6604
a(lp6605
a(lp6606
a(lp6607
a(lp6608
a(lp6609
a(lp6610
a(lp6611
a(lp6612
a(lp6613
a(lp6614
a(lp6615
a(lp6616
a(lp6617
a(lp6618
a(lp6619
a(lp6620
a(lp6621
a(lp6622
a(lp6623
a(lp6624
a(lp6625
a(lp6626
a(lp6627
a(lp6628
a(lp6629
a(lp6630
a(lp6631
a(lp6632
a(lp6633
a(lp6634
a(lp6635
a(lp6636
a(lp6637
a(lp6638
a(lp6639
a(lp6640
a(lp6641
a(lp6642
a(lp6643
a(lp6644
a(lp6645
a(lp6646
a(lp6647
a(lp6648
a(lp6649
a(lp6650
a(lp6651
F4235.7374098855871
aF-1.7349009340250632
aF8.5250547954274225
aF-96.165697982542042
aF28.745435542987252
aF-145.27186920076929
aF-153.36920000663667
aF-24.417857957814704
aF3087.7394124217972
aF401.96102588652138
aa(lp6652
a(lp6653
a(lp6654
a(lp6655
a(lp6656
a(lp6657
a(lp6658
a(lp6659
a(lp6660
a(lp6661
a(lp6662
a(lp6663
a(lp6664
a(lp6665
a(lp6666
a(lp6667
a(lp6668
a(lp6669
F3216.3364608095435
aF-7.7520780905615538
aF499.31464900510036
aF41.199785982826143
aF66.172009383080876
aF350.87270475742116
aF185.02578313928097
aF-15.202556369331433
aF2774.9393211706774
aF296.82951776521804
aa(lp6670
a(lp6671
a(lp6672
a(lp6673
a(lp6674
a(lp6675
a(lp6676
F2979.790951940231
aF-4.8540840680288966
aF279.01816679332114
aF-227.23552604020369
aF11.184158665855648
aF521.78646683387342
aF25.872336095744686
aF-7.5779894359584432
aF3065.0671533294371
aF392.8292841237635
aa(lp6677
a(lp6678
a(lp6679
a(lp6680
a(lp6681
a(lp6682
a(lp6683
a(lp6684
a(lp6685
a(lp6686
a(lp6687
a(lp6688
a(lp6689
a(lp6690
a(lp6691
a(lp6692
a(lp6693
a(lp6694
a(lp6695
a(lp6696
a(lp6697
a(lp6698
a(lp6699
a(lp6700
a(lp6701
F2108.8356383813789
aF-6.8010294285159034
aF-33.144472411095194
aF-317.77143085776061
aF-42.134810129823563
aF245.05217623982389
aF150.59105287207331
aF-14.85894252084563
aF2374.4869224628928
aF327.83366279431903
aa(lp6702
a(lp6703
a(lp6704
a(lp6705
a(lp6706
a(lp6707
a(lp6708
a(lp6709
a(lp6710
a(lp6711
a(lp6712
a(lp6713
a(lp6714
a(lp6715
F1252.16434412323
aF-5.3618038009517477
aF100.22767469308747
aF186.18341357523605
aF-59.302338684119604
aF117.59538409705783
aF-54.25247167067937
aF-27.356050225080253
aF2382.5327346571612
aF241.27644451255037
aa(lp6716
a(lp6717
F1901.7763648321306
aF-1.8990917283190356
aF272.27449237443579
aF196.76631950460433
aF29.49413442365767
aF-25.146995596969646
aF63.485136081453675
aF8.8752258875501866
aF2112.8624567268162
aF207.35994041842787
aa(lp6718
a(lp6719
a(lp6720
a(lp6721
a(lp6722
a(lp6723
a(lp6724
a(lp6725
a(lp6726
a(lp6727
a(lp6728
a(lp6729
a(lp6730
a(lp6731
a(lp6732
a(lp6733
a(lp6734
a(lp6735
a(lp6736
a(lp6737
a(lp6738
a(lp6739
a(lp6740
a(lp6741
a(lp6742
a(lp6743
a(lp6744
a(lp6745
a(lp6746
a(lp6747
a(lp6748
a(lp6749
F1262.3787284837817
aF-2.665298381998582
aF319.6735349320079
aF-155.03464680932666
aF-287.27408789563924
aF48.415947162538941
aF2.154450839952915
aF1748.2050594708198
aF206.34412862818863
aa(lp6750
a(lp6751
a(lp6752
a(lp6753
a(lp6754
a(lp6755
a(lp6756
a(lp6757
a(lp6758
a(lp6759
a(lp6760
a(lp6761
a(lp6762
a(lp6763
F603.89377534164623
aF-3.1576249170939263
aF182.97464325911506
aF162.08022586283732
aF-87.73749868851155
aF-267.38190470609879
aF-45.475127130600868
aF14.390023572730115
aF637.3901884515476
aF105.70078359251056
aa(lp6764
a(lp6765
F792.21830446840613
aF-2.4387446728724171
aF347.70330330502475
aF-129.29760941915447
aF-126.02949936990626
aF88.746232052017149
aF22.073217564866354
aF600.90771256682274
aF88.089458927242958
aa(lp6766
a(lp6767
a(lp6768
a(lp6769
a(lp6770
a(lp6771
a(lp6772
a(lp6773
a(lp6774
a(lp6775
a(lp6776
a(lp6777
a(lp6778
a(lp6779
a(lp6780
a(lp6781
a(lp6782
a(lp6783
a(lp6784
a(lp6785
a(lp6786
a(lp6787
a(lp6788
F-187.14697347377296
aF-0.93617558150072
aF5.214620557580929
aF99.265762543154779
aF-73.261282551584372
aF-1.4361027922404901
aF69.797903279322782
aF6.0777509247600392
aF118.80833952204739
aF16.63153383901772
aa(lp6789
a(lp6790
a(lp6791
a(lp6792
a(lp6793
a(lp6794
a(lp6795
F-66.833394640752886
aF-1.0226786084643891
aF26.825530641261253
aF10.659963400883044
aF-45.158024075675485
aF5.9715084432809817
aF119.81052585596785
aF-0.16132148950021019
aF74.428579743823775
aF5.6395187186808471
aa(lp6796
a(lp6797
a(lp6798
a(lp6799
a(lp6800
a(lp6801
a(lp6802
a(lp6803
a(lp6804
a(lp6805
a(lp6806
a(lp6807
a(lp6808
a(lp6809
a(lp6810
a(lp6811
a(lp6812
a(lp6813
a(lp6814
a(lp6815
a(lp6816
a(lp6817
a(lp6818
a(lp6819
a(lp6820
F-70.1825911164633
aF-1.3522489794581816
aF62.745394124874565
aF44.431004120326634
aF-59.209557967676574
aF-21.839247210664325
aF69.091236909457621
aF3.6967668037846124
aF33.806941068803553
aF0.19698855879823896
aa(lp6821
a(lp6822
a(lp6823
a(lp6824
a(lp6825
a(lp6826
a(lp6827
F8.4387700383103947
aF-0.52236810432759739
aF9.3909938492231504
aF211.78172042723986
aF-119.57040975119071
aF28.678765495726566
aF95.898752849876701
aF-3.1771718589368447
aF46.043857437894076
aF2.2804991672842334
aa(lp6828
a(lp6829
F-372.24081879116966
aF-0.54832440810059779
aF15.467379910205636
aF89.032894123874939
aF-54.461288101492755
aF-112.26872516090225
aF65.031085938471733
aF6.322837009520299
aF47.381281831349042
aF6.7905858713857015
aa(lp6830
a(lp6831
a(lp6832
a(lp6833
a(lp6834
a(lp6835
a(lp6836
F-276.90244959188703
aF-0.10928395965947857
aF-0.13275229804321498
aF21.109896941595707
aF-28.633989401782856
aF24.737373038874466
aF50.630477588242684
aF1.7534137697339247
aF10.489251422995949
aF2.9134463730429161
aa(lp6837
a(lp6838
a(lp6839
a(lp6840
a(lp6841
a(lp6842
a(lp6843
a(lp6844
a(lp6845
a(lp6846
a(lp6847
a(lp6848
a(lp6849
a(lp6850
a(lp6851
a(lp6852
F136.19777483597773
aF-1.7402818741629744
aF160.2074586770641
aF378.40769060437651
aF-87.064491083310713
aF-111.6686867419503
aF126.15452753550471
aF-22.512274355790396
aF268.42790354919543
aF48.787534012717515
aa(lp6853
a(lp6854
a(lp6855
a(lp6856
a(lp6857
a(lp6858
a(lp6859
a(lp6860
a(lp6861
F706.73142573696168
aF-2.6528581997808942
aF231.61559568052326
aF819.85495654635088
aF-120.84826153113681
aF-156.79017906222725
aF28.822884701185103
aF-14.260172065405641
aF476.00919828028054
aF65.557578921016102
aa(lp6862
a(lp6863
a(lp6864
a(lp6865
a(lp6866
a(lp6867
a(lp6868
a(lp6869
a(lp6870
a(lp6871
a(lp6872
a(lp6873
a(lp6874
a(lp6875
a(lp6876
a(lp6877
a(lp6878
a(lp6879
a(lp6880
a(lp6881
a(lp6882
a(lp6883
a(lp6884
F3266.5927278685558
aF-5.8900525345961796
aF7.7092408901080489
aF1498.1404149239097
aF-425.68867115733156
aF269.28994429908926
aF-58.362473964734818
aF-70.462584744745982
aF2692.9361752081604
aF283.61657768982695
aa(lp6885
a(lp6886
a(lp6887
a(lp6888
a(lp6889
a(lp6890
a(lp6891
a(lp6892
a(lp6893
F3878.8803124134574
aF-0.069366024035844021
aF-178.52292444331397
aF1830.980920658476
aF88.675727738518617
aF-344.40608374097792
aF-166.3361558712495
aF-27.563879712033668
aF2460.8232649825368
aF285.24450499389786
aa(lp6894
a(lp6895
a(lp6896
a(lp6897
a(lp6898
a(lp6899
a(lp6900
a(lp6901
a(lp6902
a(lp6903
a(lp6904
a(lp6905
a(lp6906
a(lp6907
a(lp6908
a(lp6909
a(lp6910
a(lp6911
a(lp6912
a(lp6913
a(lp6914
a(lp6915
a(lp6916
a(lp6917
a(lp6918
a(lp6919
a(lp6920
a(lp6921
a(lp6922
a(lp6923
a(lp6924
a(lp6925
a(lp6926
a(lp6927
a(lp6928
a(lp6929
a(lp6930
a(lp6931
a(lp6932
a(lp6933
a(lp6934
a(lp6935
a(lp6936
a(lp6937
a(lp6938
a(lp6939
a(lp6940
a(lp6941
a(lp6942
a(lp6943
a(lp6944
a(lp6945
a(lp6946
a(lp6947
a(lp6948
a(lp6949
a(lp6950
a(lp6951
a(lp6952
a(lp6953
a(lp6954
a(lp6955
a(lp6956
a(lp6957
a(lp6958
a(lp6959
a(lp6960
a(lp6961
a(lp6962
a(lp6963
a(lp6964
a(lp6965
a(lp6966
a(lp6967
a(lp6968
a(lp6969
a(lp6970
a(lp6971
a(lp6972
a(lp6973
a(lp6974
a(lp6975
a(lp6976
a(lp6977
a(lp6978
a(lp6979
a(lp6980
a(lp6981
a(lp6982
a(lp6983
a(lp6984
a(lp6985
a(lp6986
a(lp6987
a(lp6988
a(lp6989
a(lp6990
a(lp6991
a(lp6992
a(lp6993
a(lp6994
a(lp6995
a(lp6996
a(lp6997
a(lp6998
a(lp6999
a(lp7000
a(lp7001
a(lp7002
a(lp7003
a(lp7004
a(lp7005
a(lp7006
a(lp7007
a(lp7008
a(lp7009
a(lp7010
a(lp7011
a(lp7012
a(lp7013
a(lp7014
a(lp7015
a(lp7016
F483.0756125784319
aF-0.23347688227204344
aF1.6306724859305177
aF-15.031015010436022
aF2.0001099443334169
aF-20.67467619326635
aF-18.147153468817123
aF-4.044928303414963
aF402.07452336460392
aF54.742323385426062
aa(lp7017
a(lp7018
a(lp7019
a(lp7020
a(lp7021
a(lp7022
a(lp7023
a(lp7024
a(lp7025
a(lp7026
a(lp7027
a(lp7028
a(lp7029
a(lp7030
a(lp7031
a(lp7032
a(lp7033
a(lp7034
F277.04648957183053
aF-0.79919999507183093
aF54.773212099235025
aF-2.1212301248851873
aF0.84842994851896947
aF19.706703824340366
aF0.13637091456075723
aF-1.9219598357267387
aF296.94175793792965
aF31.915766385282041
aa(lp7035
a(lp7036
a(lp7037
a(lp7038
a(lp7039
a(lp7040
a(lp7041
F319.21548888647067
aF-0.63206471168086864
aF33.859627990295849
aF-21.588261489569049
aF-3.504835532908146
aF48.72263090760498
aF5.2250978654910796
aF-1.053333775757892
aF392.82324912903732
aF53.513176467845369
aa(lp7042
a(lp7043
a(lp7044
a(lp7045
a(lp7046
a(lp7047
a(lp7048
a(lp7049
a(lp7050
a(lp7051
a(lp7052
a(lp7053
a(lp7054
a(lp7055
a(lp7056
a(lp7057
a(lp7058
a(lp7059
a(lp7060
a(lp7061
a(lp7062
a(lp7063
a(lp7064
a(lp7065
a(lp7066
F245.00809043814797
aF-0.8479503321723314
aF-3.6012760773473929
aF-39.549542307781849
aF-7.5096596496848633
aF31.601962113825266
aF21.445173903344994
aF-2.2211230188418085
aF327.92148374483077
aF47.170761163783936
aa(lp7067
a(lp7068
a(lp7069
a(lp7070
a(lp7071
a(lp7072
a(lp7073
a(lp7074
a(lp7075
a(lp7076
a(lp7077
a(lp7078
a(lp7079
a(lp7080
F54.244529046343359
aF-0.51183270954879845
aF7.4815845962916683
aF17.367280769065019
aF-7.3561130520261031
aF16.836032123990208
aF-2.3319643105423893
aF-3.0508989112831841
aF241.18939965234176
aF27.794628110200392
aa(lp7081
a(lp7082
F115.78983691862277
aF-0.27881839059773483
aF30.22913031003327
aF13.163239209745825
aF0.48813770803235457
aF4.4018841904858164
aF4.0361252118259472
aF0.52906070635572178
aF207.35067174371125
aF22.915543063106725
aa(lp7083
a(lp7084
a(lp7085
a(lp7086
a(lp7087
a(lp7088
a(lp7089
a(lp7090
a(lp7091
a(lp7092
a(lp7093
a(lp7094
a(lp7095
a(lp7096
a(lp7097
a(lp7098
a(lp7099
a(lp7100
a(lp7101
a(lp7102
a(lp7103
a(lp7104
a(lp7105
a(lp7106
a(lp7107
a(lp7108
a(lp7109
a(lp7110
a(lp7111
a(lp7112
a(lp7113
a(lp7114
F106.23766684147995
aF-0.31534685973610976
aF33.682130151646561
aF-17.603842650260049
aF-28.282828523629178
aF10.166219688301226
aF0.47486334864288438
aF206.43509976991936
aF26.437455069583393
aa(lp7115
a(lp7116
a(lp7117
a(lp7118
a(lp7119
a(lp7120
a(lp7121
a(lp7122
a(lp7123
a(lp7124
a(lp7125
a(lp7126
a(lp7127
a(lp7128
F87.269581139359786
aF-0.48762265336677046
aF29.696649006538678
aF22.223097451146145
aF-14.238647283448813
aF-39.326671008588221
aF-5.404060954283807
aF2.3781647762177727
aF105.62672043690213
aF17.842967459102965
aa(lp7129
a(lp7130
F69.485306397609747
aF-0.31491893537349824
aF45.749944632689221
aF-12.809360683263549
aF-4.1344542012211605
aF22.141166944322777
aF3.0501919212611028
aF88.130989972512452
aF13.777195739805848
aa(lp7131
a(lp7132
a(lp7133
a(lp7134
a(lp7135
a(lp7136
a(lp7137
a(lp7138
a(lp7139
a(lp7140
a(lp7141
a(lp7142
a(lp7143
a(lp7144
a(lp7145
a(lp7146
a(lp7147
a(lp7148
a(lp7149
a(lp7150
a(lp7151
a(lp7152
a(lp7153
F-64.357728035702166
aF-0.10114522552839844
aF-1.745318201074042
aF-1.0136766093182814
aF-12.247051373037721
aF-1.3080708072266134
aF17.693282394759535
aF0.49520387790380482
aF16.602630026341103
aF3.4615080579669666
aa(lp7154
a(lp7155
a(lp7156
a(lp7157
a(lp7158
a(lp7159
a(lp7160
F-24.514617397164429
aF-0.00090733531799003231
aF-5.4913802560729863
aF-10.351919565998458
aF-5.9307143029929676
aF4.420724303288992
aF7.9175002554165985
aF-1.0760189350644822
aF5.6128297565294361
aF1.0374866354911916
aa(lp7161
a(lp7162
a(lp7163
a(lp7164
a(lp7165
a(lp7166
a(lp7167
a(lp7168
a(lp7169
a(lp7170
a(lp7171
a(lp7172
a(lp7173
a(lp7174
a(lp7175
a(lp7176
a(lp7177
a(lp7178
a(lp7179
a(lp7180
a(lp7181
a(lp7182
a(lp7183
a(lp7184
a(lp7185
F-33.555858491851609
aF0.11219398743378406
aF-9.6754072753668652
aF-53.743471450928837
aF0.16833086036172062
aF11.211657469090142
aF-5.7211631876441515
aF-2.7757515397297539
aF0.19824639707621827
aF1.8969129378376692
aa(lp7186
a(lp7187
a(lp7188
a(lp7189
a(lp7190
a(lp7191
a(lp7192
F-39.996338835335266
aF-0.01783518333020595
aF0.82554058034034483
aF-25.014932403255585
aF3.4085248845627802
aF0.32858232801302734
aF6.949427977520628
aF-0.49305033389401842
aF2.2743437855243798
aF0.44898999518316884
aa(lp7193
a(lp7194
F5.8556102189299963
aF-0.22228290319503685
aF3.9154269160235344
aF12.768823864917067
aF-3.7653537177106955
aF-18.64449625799125
aF-15.443020551231257
aF0.62024705371754862
aF6.8231127414719595
aF-1.5958654842052056
aa(lp7195
a(lp7196
a(lp7197
a(lp7198
a(lp7199
a(lp7200
a(lp7201
F-50.696419662266123
aF-0.025970425809873632
aF0.52546014206455993
aF22.591048032261085
aF-13.37678818824628
aF-4.6673208409231393
aF11.154896806253589
aF-0.033783353892147261
aF2.8978759614162186
aF0.68410614950664694
aa(lp7202
a(lp7203
a(lp7204
a(lp7205
a(lp7206
a(lp7207
a(lp7208
a(lp7209
a(lp7210
a(lp7211
a(lp7212
a(lp7213
a(lp7214
a(lp7215
a(lp7216
a(lp7217
F18.65062149164487
aF-0.31436258041139808
aF28.740922219938625
aF66.59801372599361
aF-15.426506827509456
aF-18.566563220190346
aF23.043673103018136
aF-4.0539469559064401
aF48.853411804827829
aF9.4567610187112905
aa(lp7218
a(lp7219
a(lp7220
a(lp7221
a(lp7222
a(lp7223
a(lp7224
a(lp7225
a(lp7226
F54.145903938263018
aF-0.28405935381670133
aF26.515826867523629
aF83.293101305059736
aF-19.356948577353705
aF-2.4493120420743253
aF6.9027086269102256
aF-1.8165101423051055
aF65.484727684861355
aF5.3392597010315512
aa(lp7227
a(lp7228
a(lp7229
a(lp7230
a(lp7231
a(lp7232
a(lp7233
a(lp7234
a(lp7235
a(lp7236
a(lp7237
a(lp7238
a(lp7239
a(lp7240
a(lp7241
a(lp7242
a(lp7243
a(lp7244
a(lp7245
a(lp7246
a(lp7247
a(lp7248
a(lp7249
F293.21445396135459
aF-0.58552345194584632
aF2.8446152100514155
aF102.96913899310312
aF-34.473161747428094
aF35.063264647305914
aF2.6341908210270049
aF-7.7772043027835025
aF283.37312372173074
aF32.093977608838031
aa(lp7250
a(lp7251
a(lp7252
a(lp7253
a(lp7254
a(lp7255
a(lp7256
a(lp7257
a(lp7258
F355.31850031134127
aF-0.0081335826962458668
aF-17.540003938165682
aF169.69465974625564
aF-1.5043617906940199
aF-41.787919258240436
aF-15.64317742008825
aF-3.7995476986907306
aF284.88636942824996
aF35.62638042353683
aa(lp7259
a(lp7260
a(lp7261
a(lp7262
a(lp7263
a(lp7264
a(lp7265
a(lp7266
a(lp7267
a(lp7268
a(lp7269
a(lp7270
a(lp7271
a(lp7272
a(lp7273
a(lp7274
a(lp7275
a(lp7276
a(lp7277
a(lp7278
a(lp7279
a(lp7280
a(lp7281
a(lp7282
a(lp7283
a(lp7284
a(lp7285
a(lp7286
a(lp7287
a(lp7288
a(lp7289
a(lp7290
a(lp7291
a(lp7292
a(lp7293
a(lp7294
a(lp7295
a(lp7296
a(lp7297
a(lp7298
a(lp7299
a(lp7300
a(lp7301
a(lp7302
a(lp7303
a(lp7304
a(lp7305
a(lp7306
a(lp7307
a(lp7308
a(lp7309
a(lp7310
a(lp7311
a(lp7312
a(lp7313
a(lp7314
a(lp7315
a(lp7316
a(lp7317
a(lp7318
a(lp7319
a(lp7320
a(lp7321
a(lp7322
atbsb.