ccopy_reg
_reconstructor
p1
(cscipy.sparse.lil
lil_matrix
p2
c__builtin__
object
p3
NtRp4
(dp5
S'rows'
p6
cnumpy.core.multiarray
_reconstruct
p7
(cnumpy
ndarray
p8
(I0
tS'b'
tRp9
(I1
(I3650
tcnumpy
dtype
p10
(S'O8'
I0
I1
tRp11
(I3
S'|'
NNNI-1
I-1
I63
tbI00
(lp12
(lp13
a(lp14
a(lp15
a(lp16
a(lp17
a(lp18
a(lp19
a(lp20
a(lp21
a(lp22
a(lp23
a(lp24
a(lp25
a(lp26
a(lp27
a(lp28
a(lp29
a(lp30
a(lp31
a(lp32
a(lp33
a(lp34
a(lp35
a(lp36
a(lp37
a(lp38
a(lp39
a(lp40
a(lp41
a(lp42
a(lp43
a(lp44
a(lp45
a(lp46
a(lp47
a(lp48
a(lp49
a(lp50
a(lp51
a(lp52
a(lp53
a(lp54
a(lp55
a(lp56
a(lp57
a(lp58
a(lp59
a(lp60
a(lp61
a(lp62
a(lp63
a(lp64
a(lp65
a(lp66
a(lp67
a(lp68
a(lp69
a(lp70
a(lp71
I58
aI423
aI788
aI1153
aI1518
aI1883
aI2248
aI2613
aI2978
aI3343
aa(lp72
a(lp73
a(lp74
a(lp75
a(lp76
a(lp77
a(lp78
a(lp79
a(lp80
a(lp81
a(lp82
a(lp83
a(lp84
a(lp85
a(lp86
a(lp87
a(lp88
a(lp89
a(lp90
a(lp91
a(lp92
a(lp93
a(lp94
a(lp95
a(lp96
a(lp97
a(lp98
a(lp99
a(lp100
a(lp101
a(lp102
a(lp103
I90
aI455
aI820
aI1185
aI1550
aI1915
aI2280
aI2645
aI3010
aI3375
aa(lp104
a(lp105
a(lp106
a(lp107
a(lp108
a(lp109
a(lp110
a(lp111
a(lp112
a(lp113
a(lp114
a(lp115
a(lp116
a(lp117
a(lp118
a(lp119
a(lp120
a(lp121
a(lp122
a(lp123
a(lp124
a(lp125
a(lp126
a(lp127
a(lp128
a(lp129
a(lp130
a(lp131
a(lp132
a(lp133
a(lp134
a(lp135
a(lp136
a(lp137
a(lp138
a(lp139
a(lp140
a(lp141
a(lp142
a(lp143
a(lp144
a(lp145
a(lp146
a(lp147
a(lp148
a(lp149
a(lp150
a(lp151
I138
aI503
aI868
aI1233
aI1598
aI1963
aI2328
aI2693
aI3058
aI3423
aa(lp152
a(lp153
a(lp154
a(lp155
a(lp156
a(lp157
a(lp158
a(lp159
a(lp160
a(lp161
a(lp162
a(lp163
a(lp164
a(lp165
a(lp166
a(lp167
a(lp168
a(lp169
a(lp170
a(lp171
a(lp172
a(lp173
a(lp174
a(lp175
a(lp176
a(lp177
a(lp178
a(lp179
a(lp180
a(lp181
a(lp182
a(lp183
a(lp184
a(lp185
a(lp186
a(lp187
a(lp188
a(lp189
a(lp190
I177
aI542
aI907
aI1272
aI1637
aI2002
aI2367
aI2732
aI3097
aI3462
aa(lp191
a(lp192
I179
aI544
aI909
aI1274
aI1639
aI2004
aI2369
aI2734
aI3099
aI3464
aa(lp193
a(lp194
a(lp195
a(lp196
a(lp197
a(lp198
a(lp199
a(lp200
a(lp201
a(lp202
a(lp203
a(lp204
a(lp205
a(lp206
a(lp207
a(lp208
I195
aI560
aI925
aI1290
aI1655
aI2020
aI2385
aI2750
aI3115
aI3480
aa(lp209
a(lp210
a(lp211
a(lp212
a(lp213
a(lp214
a(lp215
I202
aI567
aI932
aI1297
aI1662
aI2027
aI2392
aI2757
aI3122
aI3487
aa(lp216
a(lp217
a(lp218
a(lp219
a(lp220
a(lp221
a(lp222
a(lp223
a(lp224
a(lp225
a(lp226
a(lp227
a(lp228
a(lp229
a(lp230
a(lp231
I218
aI583
aI948
aI1313
aI1678
aI2043
aI2408
aI2773
aI3138
aI3503
aa(lp232
a(lp233
a(lp234
a(lp235
a(lp236
a(lp237
a(lp238
a(lp239
a(lp240
a(lp241
a(lp242
a(lp243
a(lp244
a(lp245
a(lp246
a(lp247
a(lp248
a(lp249
a(lp250
a(lp251
a(lp252
a(lp253
a(lp254
I241
aI606
aI971
aI1336
aI1701
aI2066
aI2431
aI2796
aI3161
aI3526
aa(lp255
a(lp256
I243
aI608
aI973
aI1338
aI1703
aI2068
aI2433
aI2798
aI3163
aI3528
aa(lp257
a(lp258
a(lp259
a(lp260
a(lp261
a(lp262
a(lp263
I250
aI615
aI980
aI1345
aI1710
aI2075
aI2440
aI2805
aI3170
aI3535
aa(lp264
a(lp265
a(lp266
a(lp267
a(lp268
a(lp269
a(lp270
I257
aI622
aI987
aI1352
aI1717
aI2082
aI2447
aI2812
aI3177
aI3542
aa(lp271
a(lp272
a(lp273
a(lp274
a(lp275
a(lp276
a(lp277
a(lp278
a(lp279
a(lp280
a(lp281
a(lp282
a(lp283
a(lp284
a(lp285
a(lp286
a(lp287
a(lp288
a(lp289
a(lp290
a(lp291
a(lp292
a(lp293
a(lp294
a(lp295
a(lp296
a(lp297
a(lp298
a(lp299
a(lp300
a(lp301
a(lp302
a(lp303
a(lp304
a(lp305
a(lp306
a(lp307
a(lp308
a(lp309
a(lp310
a(lp311
a(lp312
a(lp313
a(lp314
a(lp315
a(lp316
a(lp317
a(lp318
a(lp319
a(lp320
a(lp321
a(lp322
a(lp323
a(lp324
a(lp325
a(lp326
a(lp327
a(lp328
a(lp329
a(lp330
a(lp331
a(lp332
a(lp333
a(lp334
a(lp335
a(lp336
a(lp337
a(lp338
a(lp339
a(lp340
a(lp341
a(lp342
a(lp343
a(lp344
a(lp345
a(lp346
a(lp347
a(lp348
a(lp349
a(lp350
a(lp351
a(lp352
a(lp353
a(lp354
a(lp355
a(lp356
a(lp357
a(lp358
a(lp359
a(lp360
a(lp361
a(lp362
a(lp363
a(lp364
a(lp365
a(lp366
I353
aI718
aI1083
aI1448
aI1813
aI2178
aI2543
aI2908
aI3273
aI3638
aa(lp367
a(lp368
a(lp369
a(lp370
a(lp371
a(lp372
a(lp373
a(lp374
a(lp375
a(lp376
a(lp377
a(lp378
a(lp379
a(lp380
a(lp381
a(lp382
a(lp383
a(lp384
a(lp385
a(lp386
a(lp387
a(lp388
a(lp389
a(lp390
a(lp391
a(lp392
a(lp393
a(lp394
a(lp395
a(lp396
a(lp397
a(lp398
a(lp399
a(lp400
a(lp401
a(lp402
a(lp403
a(lp404
a(lp405
a(lp406
a(lp407
a(lp408
a(lp409
a(lp410
a(lp411
a(lp412
a(lp413
a(lp414
a(lp415
a(lp416
a(lp417
a(lp418
a(lp419
a(lp420
a(lp421
a(lp422
a(lp423
a(lp424
a(lp425
a(lp426
a(lp427
a(lp428
a(lp429
a(lp430
a(lp431
a(lp432
a(lp433
a(lp434
a(lp435
a(lp436
I58
aI423
aI788
aI1153
aI1518
aI1883
aI2248
aI2613
aI2978
aI3343
aa(lp437
a(lp438
a(lp439
a(lp440
a(lp441
a(lp442
a(lp443
a(lp444
a(lp445
a(lp446
a(lp447
a(lp448
a(lp449
a(lp450
a(lp451
a(lp452
a(lp453
a(lp454
a(lp455
a(lp456
a(lp457
a(lp458
a(lp459
a(lp460
a(lp461
a(lp462
a(lp463
a(lp464
a(lp465
a(lp466
a(lp467
a(lp468
I90
aI455
aI820
aI1185
aI1550
aI1915
aI2280
aI2645
aI3010
aI3375
aa(lp469
a(lp470
a(lp471
a(lp472
a(lp473
a(lp474
a(lp475
a(lp476
a(lp477
a(lp478
a(lp479
a(lp480
a(lp481
a(lp482
a(lp483
a(lp484
a(lp485
a(lp486
a(lp487
a(lp488
a(lp489
a(lp490
a(lp491
a(lp492
a(lp493
a(lp494
a(lp495
a(lp496
a(lp497
a(lp498
a(lp499
a(lp500
a(lp501
a(lp502
a(lp503
a(lp504
a(lp505
a(lp506
a(lp507
a(lp508
a(lp509
a(lp510
a(lp511
a(lp512
a(lp513
a(lp514
a(lp515
a(lp516
I138
aI503
aI868
aI1233
aI1598
aI1963
aI2328
aI2693
aI3058
aI3423
aa(lp517
a(lp518
a(lp519
a(lp520
a(lp521
a(lp522
a(lp523
a(lp524
a(lp525
a(lp526
a(lp527
a(lp528
a(lp529
a(lp530
a(lp531
a(lp532
a(lp533
a(lp534
a(lp535
a(lp536
a(lp537
a(lp538
a(lp539
a(lp540
a(lp541
a(lp542
a(lp543
a(lp544
a(lp545
a(lp546
a(lp547
a(lp548
a(lp549
a(lp550
a(lp551
a(lp552
a(lp553
a(lp554
a(lp555
I177
aI542
aI907
aI1272
aI1637
aI2002
aI2367
aI2732
aI3097
aI3462
aa(lp556
a(lp557
I179
aI544
aI909
aI1274
aI1639
aI2004
aI2369
aI2734
aI3099
aI3464
aa(lp558
a(lp559
a(lp560
a(lp561
a(lp562
a(lp563
a(lp564
a(lp565
a(lp566
a(lp567
a(lp568
a(lp569
a(lp570
a(lp571
a(lp572
a(lp573
I195
aI560
aI925
aI1290
aI1655
aI2020
aI2385
aI2750
aI3115
aI3480
aa(lp574
a(lp575
a(lp576
a(lp577
a(lp578
a(lp579
a(lp580
I202
aI567
aI932
aI1297
aI1662
aI2027
aI2392
aI2757
aI3122
aI3487
aa(lp581
a(lp582
a(lp583
a(lp584
a(lp585
a(lp586
a(lp587
a(lp588
a(lp589
a(lp590
a(lp591
a(lp592
a(lp593
a(lp594
a(lp595
a(lp596
I218
aI583
aI948
aI1313
aI1678
aI2043
aI2408
aI2773
aI3138
aI3503
aa(lp597
a(lp598
a(lp599
a(lp600
a(lp601
a(lp602
a(lp603
a(lp604
a(lp605
a(lp606
a(lp607
a(lp608
a(lp609
a(lp610
a(lp611
a(lp612
a(lp613
a(lp614
a(lp615
a(lp616
a(lp617
a(lp618
a(lp619
I241
aI606
aI971
aI1336
aI1701
aI2066
aI2431
aI2796
aI3161
aI3526
aa(lp620
a(lp621
I243
aI608
aI973
aI1338
aI1703
aI2068
aI2433
aI2798
aI3163
aI3528
aa(lp622
a(lp623
a(lp624
a(lp625
a(lp626
a(lp627
a(lp628
I250
aI615
aI980
aI1345
aI1710
aI2075
aI2440
aI2805
aI3170
aI3535
aa(lp629
a(lp630
a(lp631
a(lp632
a(lp633
a(lp634
a(lp635
I257
aI622
aI987
aI1352
aI1717
aI2082
aI2447
aI2812
aI3177
aI3542
aa(lp636
a(lp637
a(lp638
a(lp639
a(lp640
a(lp641
a(lp642
a(lp643
a(lp644
a(lp645
a(lp646
a(lp647
a(lp648
a(lp649
a(lp650
a(lp651
a(lp652
a(lp653
a(lp654
a(lp655
a(lp656
a(lp657
a(lp658
a(lp659
a(lp660
a(lp661
a(lp662
a(lp663
a(lp664
a(lp665
a(lp666
a(lp667
a(lp668
a(lp669
a(lp670
a(lp671
a(lp672
a(lp673
a(lp674
a(lp675
a(lp676
a(lp677
a(lp678
a(lp679
a(lp680
a(lp681
a(lp682
a(lp683
a(lp684
a(lp685
a(lp686
a(lp687
a(lp688
a(lp689
a(lp690
a(lp691
a(lp692
a(lp693
a(lp694
a(lp695
a(lp696
a(lp697
a(lp698
a(lp699
a(lp700
a(lp701
a(lp702
a(lp703
a(lp704
a(lp705
a(lp706
a(lp707
a(lp708
a(lp709
a(lp710
a(lp711
a(lp712
a(lp713
a(lp714
a(lp715
a(lp716
a(lp717
a(lp718
a(lp719
a(lp720
a(lp721
a(lp722
a(lp723
a(lp724
a(lp725
a(lp726
a(lp727
a(lp728
a(lp729
a(lp730
a(lp731
I353
aI718
aI1083
aI1448
aI1813
aI2178
aI2543
aI2908
aI3273
aI3638
aa(lp732
a(lp733
a(lp734
a(lp735
a(lp736
a(lp737
a(lp738
a(lp739
a(lp740
a(lp741
a(lp742
a(lp743
a(lp744
a(lp745
a(lp746
a(lp747
a(lp748
a(lp749
a(lp750
a(lp751
a(lp752
a(lp753
a(lp754
a(lp755
a(lp756
a(lp757
a(lp758
a(lp759
a(lp760
a(lp761
a(lp762
a(lp763
a(lp764
a(lp765
a(lp766
a(lp767
a(lp768
a(lp769
a(lp770
a(lp771
a(lp772
a(lp773
a(lp774
a(lp775
a(lp776
a(lp777
a(lp778
a(lp779
a(lp780
a(lp781
a(lp782
a(lp783
a(lp784
a(lp785
a(lp786
a(lp787
a(lp788
a(lp789
a(lp790
a(lp791
a(lp792
a(lp793
a(lp794
a(lp795
a(lp796
a(lp797
a(lp798
a(lp799
a(lp800
a(lp801
I58
aI423
aI788
aI1153
aI1518
aI1883
aI2248
aI2613
aI2978
aI3343
aa(lp802
a(lp803
a(lp804
a(lp805
a(lp806
a(lp807
a(lp808
a(lp809
a(lp810
a(lp811
a(lp812
a(lp813
a(lp814
a(lp815
a(lp816
a(lp817
a(lp818
a(lp819
a(lp820
a(lp821
a(lp822
a(lp823
a(lp824
a(lp825
a(lp826
a(lp827
a(lp828
a(lp829
a(lp830
a(lp831
a(lp832
a(lp833
I90
aI455
aI820
aI1185
aI1550
aI1915
aI2280
aI2645
aI3010
aI3375
aa(lp834
a(lp835
a(lp836
a(lp837
a(lp838
a(lp839
a(lp840
a(lp841
a(lp842
a(lp843
a(lp844
a(lp845
a(lp846
a(lp847
a(lp848
a(lp849
a(lp850
a(lp851
a(lp852
a(lp853
a(lp854
a(lp855
a(lp856
a(lp857
a(lp858
a(lp859
a(lp860
a(lp861
a(lp862
a(lp863
a(lp864
a(lp865
a(lp866
a(lp867
a(lp868
a(lp869
a(lp870
a(lp871
a(lp872
a(lp873
a(lp874
a(lp875
a(lp876
a(lp877
a(lp878
a(lp879
a(lp880
a(lp881
I138
aI503
aI868
aI1233
aI1598
aI1963
aI2328
aI2693
aI3058
aI3423
aa(lp882
a(lp883
a(lp884
a(lp885
a(lp886
a(lp887
a(lp888
a(lp889
a(lp890
a(lp891
a(lp892
a(lp893
a(lp894
a(lp895
a(lp896
a(lp897
a(lp898
a(lp899
a(lp900
a(lp901
a(lp902
a(lp903
a(lp904
a(lp905
a(lp906
a(lp907
a(lp908
a(lp909
a(lp910
a(lp911
a(lp912
a(lp913
a(lp914
a(lp915
a(lp916
a(lp917
a(lp918
a(lp919
a(lp920
I177
aI542
aI907
aI1272
aI1637
aI2002
aI2367
aI2732
aI3097
aI3462
aa(lp921
a(lp922
I179
aI544
aI909
aI1274
aI1639
aI2004
aI2369
aI2734
aI3099
aI3464
aa(lp923
a(lp924
a(lp925
a(lp926
a(lp927
a(lp928
a(lp929
a(lp930
a(lp931
a(lp932
a(lp933
a(lp934
a(lp935
a(lp936
a(lp937
a(lp938
I195
aI560
aI925
aI1290
aI1655
aI2020
aI2385
aI2750
aI3115
aI3480
aa(lp939
a(lp940
a(lp941
a(lp942
a(lp943
a(lp944
a(lp945
I202
aI567
aI932
aI1297
aI1662
aI2027
aI2392
aI2757
aI3122
aI3487
aa(lp946
a(lp947
a(lp948
a(lp949
a(lp950
a(lp951
a(lp952
a(lp953
a(lp954
a(lp955
a(lp956
a(lp957
a(lp958
a(lp959
a(lp960
a(lp961
I218
aI583
aI948
aI1313
aI1678
aI2043
aI2408
aI2773
aI3138
aI3503
aa(lp962
a(lp963
a(lp964
a(lp965
a(lp966
a(lp967
a(lp968
a(lp969
a(lp970
a(lp971
a(lp972
a(lp973
a(lp974
a(lp975
a(lp976
a(lp977
a(lp978
a(lp979
a(lp980
a(lp981
a(lp982
a(lp983
a(lp984
I241
aI606
aI971
aI1336
aI1701
aI2066
aI2431
aI2796
aI3161
aI3526
aa(lp985
a(lp986
I243
aI608
aI973
aI1338
aI1703
aI2068
aI2433
aI2798
aI3163
aI3528
aa(lp987
a(lp988
a(lp989
a(lp990
a(lp991
a(lp992
a(lp993
I250
aI615
aI980
aI1345
aI1710
aI2075
aI2440
aI2805
aI3170
aI3535
aa(lp994
a(lp995
a(lp996
a(lp997
a(lp998
a(lp999
a(lp1000
I257
aI622
aI987
aI1352
aI1717
aI2082
aI2447
aI2812
aI3177
aI3542
aa(lp1001
a(lp1002
a(lp1003
a(lp1004
a(lp1005
a(lp1006
a(lp1007
a(lp1008
a(lp1009
a(lp1010
a(lp1011
a(lp1012
a(lp1013
a(lp1014
a(lp1015
a(lp1016
a(lp1017
a(lp1018
a(lp1019
a(lp1020
a(lp1021
a(lp1022
a(lp1023
a(lp1024
a(lp1025
a(lp1026
a(lp1027
a(lp1028
a(lp1029
a(lp1030
a(lp1031
a(lp1032
a(lp1033
a(lp1034
a(lp1035
a(lp1036
a(lp1037
a(lp1038
a(lp1039
a(lp1040
a(lp1041
a(lp1042
a(lp1043
a(lp1044
a(lp1045
a(lp1046
a(lp1047
a(lp1048
a(lp1049
a(lp1050
a(lp1051
a(lp1052
a(lp1053
a(lp1054
a(lp1055
a(lp1056
a(lp1057
a(lp1058
a(lp1059
a(lp1060
a(lp1061
a(lp1062
a(lp1063
a(lp1064
a(lp1065
a(lp1066
a(lp1067
a(lp1068
a(lp1069
a(lp1070
a(lp1071
a(lp1072
a(lp1073
a(lp1074
a(lp1075
a(lp1076
a(lp1077
a(lp1078
a(lp1079
a(lp1080
a(lp1081
a(lp1082
a(lp1083
a(lp1084
a(lp1085
a(lp1086
a(lp1087
a(lp1088
a(lp1089
a(lp1090
a(lp1091
a(lp1092
a(lp1093
a(lp1094
a(lp1095
a(lp1096
I353
aI718
aI1083
aI1448
aI1813
aI2178
aI2543
aI2908
aI3273
aI3638
aa(lp1097
a(lp1098
a(lp1099
a(lp1100
a(lp1101
a(lp1102
a(lp1103
a(lp1104
a(lp1105
a(lp1106
a(lp1107
a(lp1108
a(lp1109
a(lp1110
a(lp1111
a(lp1112
a(lp1113
a(lp1114
a(lp1115
a(lp1116
a(lp1117
a(lp1118
a(lp1119
a(lp1120
a(lp1121
a(lp1122
a(lp1123
a(lp1124
a(lp1125
a(lp1126
a(lp1127
a(lp1128
a(lp1129
a(lp1130
a(lp1131
a(lp1132
a(lp1133
a(lp1134
a(lp1135
a(lp1136
a(lp1137
a(lp1138
a(lp1139
a(lp1140
a(lp1141
a(lp1142
a(lp1143
a(lp1144
a(lp1145
a(lp1146
a(lp1147
a(lp1148
a(lp1149
a(lp1150
a(lp1151
a(lp1152
a(lp1153
a(lp1154
a(lp1155
a(lp1156
a(lp1157
a(lp1158
a(lp1159
a(lp1160
a(lp1161
a(lp1162
a(lp1163
a(lp1164
a(lp1165
a(lp1166
I58
aI423
aI788
aI1153
aI1518
aI1883
aI2248
aI2613
aI2978
aI3343
aa(lp1167
a(lp1168
a(lp1169
a(lp1170
a(lp1171
a(lp1172
a(lp1173
a(lp1174
a(lp1175
a(lp1176
a(lp1177
a(lp1178
a(lp1179
a(lp1180
a(lp1181
a(lp1182
a(lp1183
a(lp1184
a(lp1185
a(lp1186
a(lp1187
a(lp1188
a(lp1189
a(lp1190
a(lp1191
a(lp1192
a(lp1193
a(lp1194
a(lp1195
a(lp1196
a(lp1197
a(lp1198
I90
aI455
aI820
aI1185
aI1550
aI1915
aI2280
aI2645
aI3010
aI3375
aa(lp1199
a(lp1200
a(lp1201
a(lp1202
a(lp1203
a(lp1204
a(lp1205
a(lp1206
a(lp1207
a(lp1208
a(lp1209
a(lp1210
a(lp1211
a(lp1212
a(lp1213
a(lp1214
a(lp1215
a(lp1216
a(lp1217
a(lp1218
a(lp1219
a(lp1220
a(lp1221
a(lp1222
a(lp1223
a(lp1224
a(lp1225
a(lp1226
a(lp1227
a(lp1228
a(lp1229
a(lp1230
a(lp1231
a(lp1232
a(lp1233
a(lp1234
a(lp1235
a(lp1236
a(lp1237
a(lp1238
a(lp1239
a(lp1240
a(lp1241
a(lp1242
a(lp1243
a(lp1244
a(lp1245
a(lp1246
I138
aI503
aI868
aI1233
aI1598
aI1963
aI2328
aI2693
aI3058
aI3423
aa(lp1247
a(lp1248
a(lp1249
a(lp1250
a(lp1251
a(lp1252
a(lp1253
a(lp1254
a(lp1255
a(lp1256
a(lp1257
a(lp1258
a(lp1259
a(lp1260
a(lp1261
a(lp1262
a(lp1263
a(lp1264
a(lp1265
a(lp1266
a(lp1267
a(lp1268
a(lp1269
a(lp1270
a(lp1271
a(lp1272
a(lp1273
a(lp1274
a(lp1275
a(lp1276
a(lp1277
a(lp1278
a(lp1279
a(lp1280
a(lp1281
a(lp1282
a(lp1283
a(lp1284
a(lp1285
I177
aI542
aI907
aI1272
aI1637
aI2002
aI2367
aI2732
aI3097
aI3462
aa(lp1286
a(lp1287
I179
aI544
aI909
aI1274
aI1639
aI2004
aI2369
aI2734
aI3099
aI3464
aa(lp1288
a(lp1289
a(lp1290
a(lp1291
a(lp1292
a(lp1293
a(lp1294
a(lp1295
a(lp1296
a(lp1297
a(lp1298
a(lp1299
a(lp1300
a(lp1301
a(lp1302
a(lp1303
I195
aI560
aI925
aI1290
aI1655
aI2020
aI2385
aI2750
aI3115
aI3480
aa(lp1304
a(lp1305
a(lp1306
a(lp1307
a(lp1308
a(lp1309
a(lp1310
I202
aI567
aI932
aI1297
aI1662
aI2027
aI2392
aI2757
aI3122
aI3487
aa(lp1311
a(lp1312
a(lp1313
a(lp1314
a(lp1315
a(lp1316
a(lp1317
a(lp1318
a(lp1319
a(lp1320
a(lp1321
a(lp1322
a(lp1323
a(lp1324
a(lp1325
a(lp1326
I218
aI583
aI948
aI1313
aI1678
aI2043
aI2408
aI2773
aI3138
aI3503
aa(lp1327
a(lp1328
a(lp1329
a(lp1330
a(lp1331
a(lp1332
a(lp1333
a(lp1334
a(lp1335
a(lp1336
a(lp1337
a(lp1338
a(lp1339
a(lp1340
a(lp1341
a(lp1342
a(lp1343
a(lp1344
a(lp1345
a(lp1346
a(lp1347
a(lp1348
a(lp1349
I241
aI606
aI971
aI1336
aI1701
aI2066
aI2431
aI2796
aI3161
aI3526
aa(lp1350
a(lp1351
I243
aI608
aI973
aI1338
aI1703
aI2068
aI2433
aI2798
aI3163
aI3528
aa(lp1352
a(lp1353
a(lp1354
a(lp1355
a(lp1356
a(lp1357
a(lp1358
I250
aI615
aI980
aI1345
aI1710
aI2075
aI2440
aI2805
aI3170
aI3535
aa(lp1359
a(lp1360
a(lp1361
a(lp1362
a(lp1363
a(lp1364
a(lp1365
I257
aI622
aI987
aI1352
aI1717
aI2082
aI2447
aI2812
aI3177
aI3542
aa(lp1366
a(lp1367
a(lp1368
a(lp1369
a(lp1370
a(lp1371
a(lp1372
a(lp1373
a(lp1374
a(lp1375
a(lp1376
a(lp1377
a(lp1378
a(lp1379
a(lp1380
a(lp1381
a(lp1382
a(lp1383
a(lp1384
a(lp1385
a(lp1386
a(lp1387
a(lp1388
a(lp1389
a(lp1390
a(lp1391
a(lp1392
a(lp1393
a(lp1394
a(lp1395
a(lp1396
a(lp1397
a(lp1398
a(lp1399
a(lp1400
a(lp1401
a(lp1402
a(lp1403
a(lp1404
a(lp1405
a(lp1406
a(lp1407
a(lp1408
a(lp1409
a(lp1410
a(lp1411
a(lp1412
a(lp1413
a(lp1414
a(lp1415
a(lp1416
a(lp1417
a(lp1418
a(lp1419
a(lp1420
a(lp1421
a(lp1422
a(lp1423
a(lp1424
a(lp1425
a(lp1426
a(lp1427
a(lp1428
a(lp1429
a(lp1430
a(lp1431
a(lp1432
a(lp1433
a(lp1434
a(lp1435
a(lp1436
a(lp1437
a(lp1438
a(lp1439
a(lp1440
a(lp1441
a(lp1442
a(lp1443
a(lp1444
a(lp1445
a(lp1446
a(lp1447
a(lp1448
a(lp1449
a(lp1450
a(lp1451
a(lp1452
a(lp1453
a(lp1454
a(lp1455
a(lp1456
a(lp1457
a(lp1458
a(lp1459
a(lp1460
a(lp1461
I353
aI718
aI1083
aI1448
aI1813
aI2178
aI2543
aI2908
aI3273
aI3638
aa(lp1462
a(lp1463
a(lp1464
a(lp1465
a(lp1466
a(lp1467
a(lp1468
a(lp1469
a(lp1470
a(lp1471
a(lp1472
a(lp1473
a(lp1474
a(lp1475
a(lp1476
a(lp1477
a(lp1478
a(lp1479
a(lp1480
a(lp1481
a(lp1482
a(lp1483
a(lp1484
a(lp1485
a(lp1486
a(lp1487
a(lp1488
a(lp1489
a(lp1490
a(lp1491
a(lp1492
a(lp1493
a(lp1494
a(lp1495
a(lp1496
a(lp1497
a(lp1498
a(lp1499
a(lp1500
a(lp1501
a(lp1502
a(lp1503
a(lp1504
a(lp1505
a(lp1506
a(lp1507
a(lp1508
a(lp1509
a(lp1510
a(lp1511
a(lp1512
a(lp1513
a(lp1514
a(lp1515
a(lp1516
a(lp1517
a(lp1518
a(lp1519
a(lp1520
a(lp1521
a(lp1522
a(lp1523
a(lp1524
a(lp1525
a(lp1526
a(lp1527
a(lp1528
a(lp1529
a(lp1530
a(lp1531
I58
aI423
aI788
aI1153
aI1518
aI1883
aI2248
aI2613
aI2978
aI3343
aa(lp1532
a(lp1533
a(lp1534
a(lp1535
a(lp1536
a(lp1537
a(lp1538
a(lp1539
a(lp1540
a(lp1541
a(lp1542
a(lp1543
a(lp1544
a(lp1545
a(lp1546
a(lp1547
a(lp1548
a(lp1549
a(lp1550
a(lp1551
a(lp1552
a(lp1553
a(lp1554
a(lp1555
a(lp1556
a(lp1557
a(lp1558
a(lp1559
a(lp1560
a(lp1561
a(lp1562
a(lp1563
I90
aI455
aI820
aI1185
aI1550
aI1915
aI2280
aI2645
aI3010
aI3375
aa(lp1564
a(lp1565
a(lp1566
a(lp1567
a(lp1568
a(lp1569
a(lp1570
a(lp1571
a(lp1572
a(lp1573
a(lp1574
a(lp1575
a(lp1576
a(lp1577
a(lp1578
a(lp1579
a(lp1580
a(lp1581
a(lp1582
a(lp1583
a(lp1584
a(lp1585
a(lp1586
a(lp1587
a(lp1588
a(lp1589
a(lp1590
a(lp1591
a(lp1592
a(lp1593
a(lp1594
a(lp1595
a(lp1596
a(lp1597
a(lp1598
a(lp1599
a(lp1600
a(lp1601
a(lp1602
a(lp1603
a(lp1604
a(lp1605
a(lp1606
a(lp1607
a(lp1608
a(lp1609
a(lp1610
a(lp1611
I138
aI503
aI868
aI1233
aI1598
aI1963
aI2328
aI2693
aI3058
aI3423
aa(lp1612
a(lp1613
a(lp1614
a(lp1615
a(lp1616
a(lp1617
a(lp1618
a(lp1619
a(lp1620
a(lp1621
a(lp1622
a(lp1623
a(lp1624
a(lp1625
a(lp1626
a(lp1627
a(lp1628
a(lp1629
a(lp1630
a(lp1631
a(lp1632
a(lp1633
a(lp1634
a(lp1635
a(lp1636
a(lp1637
a(lp1638
a(lp1639
a(lp1640
a(lp1641
a(lp1642
a(lp1643
a(lp1644
a(lp1645
a(lp1646
a(lp1647
a(lp1648
a(lp1649
a(lp1650
I177
aI542
aI907
aI1272
aI1637
aI2002
aI2367
aI2732
aI3097
aI3462
aa(lp1651
a(lp1652
I179
aI544
aI909
aI1274
aI1639
aI2004
aI2369
aI2734
aI3099
aI3464
aa(lp1653
a(lp1654
a(lp1655
a(lp1656
a(lp1657
a(lp1658
a(lp1659
a(lp1660
a(lp1661
a(lp1662
a(lp1663
a(lp1664
a(lp1665
a(lp1666
a(lp1667
a(lp1668
I195
aI560
aI925
aI1290
aI1655
aI2020
aI2385
aI2750
aI3115
aI3480
aa(lp1669
a(lp1670
a(lp1671
a(lp1672
a(lp1673
a(lp1674
a(lp1675
I202
aI567
aI932
aI1297
aI1662
aI2027
aI2392
aI2757
aI3122
aI3487
aa(lp1676
a(lp1677
a(lp1678
a(lp1679
a(lp1680
a(lp1681
a(lp1682
a(lp1683
a(lp1684
a(lp1685
a(lp1686
a(lp1687
a(lp1688
a(lp1689
a(lp1690
a(lp1691
I218
aI583
aI948
aI1313
aI1678
aI2043
aI2408
aI2773
aI3138
aI3503
aa(lp1692
a(lp1693
a(lp1694
a(lp1695
a(lp1696
a(lp1697
a(lp1698
a(lp1699
a(lp1700
a(lp1701
a(lp1702
a(lp1703
a(lp1704
a(lp1705
a(lp1706
a(lp1707
a(lp1708
a(lp1709
a(lp1710
a(lp1711
a(lp1712
a(lp1713
a(lp1714
I241
aI606
aI971
aI1336
aI1701
aI2066
aI2431
aI2796
aI3161
aI3526
aa(lp1715
a(lp1716
I243
aI608
aI973
aI1338
aI1703
aI2068
aI2433
aI2798
aI3163
aI3528
aa(lp1717
a(lp1718
a(lp1719
a(lp1720
a(lp1721
a(lp1722
a(lp1723
I250
aI615
aI980
aI1345
aI1710
aI2075
aI2440
aI2805
aI3170
aI3535
aa(lp1724
a(lp1725
a(lp1726
a(lp1727
a(lp1728
a(lp1729
a(lp1730
I257
aI622
aI987
aI1352
aI1717
aI2082
aI2447
aI2812
aI3177
aI3542
aa(lp1731
a(lp1732
a(lp1733
a(lp1734
a(lp1735
a(lp1736
a(lp1737
a(lp1738
a(lp1739
a(lp1740
a(lp1741
a(lp1742
a(lp1743
a(lp1744
a(lp1745
a(lp1746
a(lp1747
a(lp1748
a(lp1749
a(lp1750
a(lp1751
a(lp1752
a(lp1753
a(lp1754
a(lp1755
a(lp1756
a(lp1757
a(lp1758
a(lp1759
a(lp1760
a(lp1761
a(lp1762
a(lp1763
a(lp1764
a(lp1765
a(lp1766
a(lp1767
a(lp1768
a(lp1769
a(lp1770
a(lp1771
a(lp1772
a(lp1773
a(lp1774
a(lp1775
a(lp1776
a(lp1777
a(lp1778
a(lp1779
a(lp1780
a(lp1781
a(lp1782
a(lp1783
a(lp1784
a(lp1785
a(lp1786
a(lp1787
a(lp1788
a(lp1789
a(lp1790
a(lp1791
a(lp1792
a(lp1793
a(lp1794
a(lp1795
a(lp1796
a(lp1797
a(lp1798
a(lp1799
a(lp1800
a(lp1801
a(lp1802
a(lp1803
a(lp1804
a(lp1805
a(lp1806
a(lp1807
a(lp1808
a(lp1809
a(lp1810
a(lp1811
a(lp1812
a(lp1813
a(lp1814
a(lp1815
a(lp1816
a(lp1817
a(lp1818
a(lp1819
a(lp1820
a(lp1821
a(lp1822
a(lp1823
a(lp1824
a(lp1825
a(lp1826
I353
aI718
aI1083
aI1448
aI1813
aI2178
aI2543
aI2908
aI3273
aI3638
aa(lp1827
a(lp1828
a(lp1829
a(lp1830
a(lp1831
a(lp1832
a(lp1833
a(lp1834
a(lp1835
a(lp1836
a(lp1837
a(lp1838
a(lp1839
a(lp1840
a(lp1841
a(lp1842
a(lp1843
a(lp1844
a(lp1845
a(lp1846
a(lp1847
a(lp1848
a(lp1849
a(lp1850
a(lp1851
a(lp1852
a(lp1853
a(lp1854
a(lp1855
a(lp1856
a(lp1857
a(lp1858
a(lp1859
a(lp1860
a(lp1861
a(lp1862
a(lp1863
a(lp1864
a(lp1865
a(lp1866
a(lp1867
a(lp1868
a(lp1869
a(lp1870
a(lp1871
a(lp1872
a(lp1873
a(lp1874
a(lp1875
a(lp1876
a(lp1877
a(lp1878
a(lp1879
a(lp1880
a(lp1881
a(lp1882
a(lp1883
a(lp1884
a(lp1885
a(lp1886
a(lp1887
a(lp1888
a(lp1889
a(lp1890
a(lp1891
a(lp1892
a(lp1893
a(lp1894
a(lp1895
a(lp1896
I58
aI423
aI788
aI1153
aI1518
aI1883
aI2248
aI2613
aI2978
aI3343
aa(lp1897
a(lp1898
a(lp1899
a(lp1900
a(lp1901
a(lp1902
a(lp1903
a(lp1904
a(lp1905
a(lp1906
a(lp1907
a(lp1908
a(lp1909
a(lp1910
a(lp1911
a(lp1912
a(lp1913
a(lp1914
a(lp1915
a(lp1916
a(lp1917
a(lp1918
a(lp1919
a(lp1920
a(lp1921
a(lp1922
a(lp1923
a(lp1924
a(lp1925
a(lp1926
a(lp1927
a(lp1928
I90
aI455
aI820
aI1185
aI1550
aI1915
aI2280
aI2645
aI3010
aI3375
aa(lp1929
a(lp1930
a(lp1931
a(lp1932
a(lp1933
a(lp1934
a(lp1935
a(lp1936
a(lp1937
a(lp1938
a(lp1939
a(lp1940
a(lp1941
a(lp1942
a(lp1943
a(lp1944
a(lp1945
a(lp1946
a(lp1947
a(lp1948
a(lp1949
a(lp1950
a(lp1951
a(lp1952
a(lp1953
a(lp1954
a(lp1955
a(lp1956
a(lp1957
a(lp1958
a(lp1959
a(lp1960
a(lp1961
a(lp1962
a(lp1963
a(lp1964
a(lp1965
a(lp1966
a(lp1967
a(lp1968
a(lp1969
a(lp1970
a(lp1971
a(lp1972
a(lp1973
a(lp1974
a(lp1975
a(lp1976
I138
aI503
aI868
aI1233
aI1598
aI1963
aI2328
aI2693
aI3058
aI3423
aa(lp1977
a(lp1978
a(lp1979
a(lp1980
a(lp1981
a(lp1982
a(lp1983
a(lp1984
a(lp1985
a(lp1986
a(lp1987
a(lp1988
a(lp1989
a(lp1990
a(lp1991
a(lp1992
a(lp1993
a(lp1994
a(lp1995
a(lp1996
a(lp1997
a(lp1998
a(lp1999
a(lp2000
a(lp2001
a(lp2002
a(lp2003
a(lp2004
a(lp2005
a(lp2006
a(lp2007
a(lp2008
a(lp2009
a(lp2010
a(lp2011
a(lp2012
a(lp2013
a(lp2014
a(lp2015
I177
aI542
aI907
aI1272
aI1637
aI2002
aI2367
aI2732
aI3097
aI3462
aa(lp2016
a(lp2017
I179
aI544
aI909
aI1274
aI1639
aI2004
aI2369
aI2734
aI3099
aI3464
aa(lp2018
a(lp2019
a(lp2020
a(lp2021
a(lp2022
a(lp2023
a(lp2024
a(lp2025
a(lp2026
a(lp2027
a(lp2028
a(lp2029
a(lp2030
a(lp2031
a(lp2032
a(lp2033
I195
aI560
aI925
aI1290
aI1655
aI2020
aI2385
aI2750
aI3115
aI3480
aa(lp2034
a(lp2035
a(lp2036
a(lp2037
a(lp2038
a(lp2039
a(lp2040
I202
aI567
aI932
aI1297
aI1662
aI2027
aI2392
aI2757
aI3122
aI3487
aa(lp2041
a(lp2042
a(lp2043
a(lp2044
a(lp2045
a(lp2046
a(lp2047
a(lp2048
a(lp2049
a(lp2050
a(lp2051
a(lp2052
a(lp2053
a(lp2054
a(lp2055
a(lp2056
I218
aI583
aI948
aI1313
aI1678
aI2043
aI2408
aI2773
aI3138
aI3503
aa(lp2057
a(lp2058
a(lp2059
a(lp2060
a(lp2061
a(lp2062
a(lp2063
a(lp2064
a(lp2065
a(lp2066
a(lp2067
a(lp2068
a(lp2069
a(lp2070
a(lp2071
a(lp2072
a(lp2073
a(lp2074
a(lp2075
a(lp2076
a(lp2077
a(lp2078
a(lp2079
I241
aI606
aI971
aI1336
aI1701
aI2066
aI2431
aI2796
aI3161
aI3526
aa(lp2080
a(lp2081
I243
aI608
aI973
aI1338
aI1703
aI2068
aI2433
aI2798
aI3163
aI3528
aa(lp2082
a(lp2083
a(lp2084
a(lp2085
a(lp2086
a(lp2087
a(lp2088
I250
aI615
aI980
aI1345
aI1710
aI2075
aI2440
aI2805
aI3170
aI3535
aa(lp2089
a(lp2090
a(lp2091
a(lp2092
a(lp2093
a(lp2094
a(lp2095
I257
aI622
aI987
aI1352
aI1717
aI2082
aI2447
aI2812
aI3177
aI3542
aa(lp2096
a(lp2097
a(lp2098
a(lp2099
a(lp2100
a(lp2101
a(lp2102
a(lp2103
a(lp2104
a(lp2105
a(lp2106
a(lp2107
a(lp2108
a(lp2109
a(lp2110
a(lp2111
a(lp2112
a(lp2113
a(lp2114
a(lp2115
a(lp2116
a(lp2117
a(lp2118
a(lp2119
a(lp2120
a(lp2121
a(lp2122
a(lp2123
a(lp2124
a(lp2125
a(lp2126
a(lp2127
a(lp2128
a(lp2129
a(lp2130
a(lp2131
a(lp2132
a(lp2133
a(lp2134
a(lp2135
a(lp2136
a(lp2137
a(lp2138
a(lp2139
a(lp2140
a(lp2141
a(lp2142
a(lp2143
a(lp2144
a(lp2145
a(lp2146
a(lp2147
a(lp2148
a(lp2149
a(lp2150
a(lp2151
a(lp2152
a(lp2153
a(lp2154
a(lp2155
a(lp2156
a(lp2157
a(lp2158
a(lp2159
a(lp2160
a(lp2161
a(lp2162
a(lp2163
a(lp2164
a(lp2165
a(lp2166
a(lp2167
a(lp2168
a(lp2169
a(lp2170
a(lp2171
a(lp2172
a(lp2173
a(lp2174
a(lp2175
a(lp2176
a(lp2177
a(lp2178
a(lp2179
a(lp2180
a(lp2181
a(lp2182
a(lp2183
a(lp2184
a(lp2185
a(lp2186
a(lp2187
a(lp2188
a(lp2189
a(lp2190
a(lp2191
I353
aI718
aI1083
aI1448
aI1813
aI2178
aI2543
aI2908
aI3273
aI3638
aa(lp2192
a(lp2193
a(lp2194
a(lp2195
a(lp2196
a(lp2197
a(lp2198
a(lp2199
a(lp2200
a(lp2201
a(lp2202
a(lp2203
a(lp2204
a(lp2205
a(lp2206
a(lp2207
a(lp2208
a(lp2209
a(lp2210
a(lp2211
a(lp2212
a(lp2213
a(lp2214
a(lp2215
a(lp2216
a(lp2217
a(lp2218
a(lp2219
a(lp2220
a(lp2221
a(lp2222
a(lp2223
a(lp2224
a(lp2225
a(lp2226
a(lp2227
a(lp2228
a(lp2229
a(lp2230
a(lp2231
a(lp2232
a(lp2233
a(lp2234
a(lp2235
a(lp2236
a(lp2237
a(lp2238
a(lp2239
a(lp2240
a(lp2241
a(lp2242
a(lp2243
a(lp2244
a(lp2245
a(lp2246
a(lp2247
a(lp2248
a(lp2249
a(lp2250
a(lp2251
a(lp2252
a(lp2253
a(lp2254
a(lp2255
a(lp2256
a(lp2257
a(lp2258
a(lp2259
a(lp2260
a(lp2261
I58
aI423
aI788
aI1153
aI1518
aI1883
aI2248
aI2613
aI2978
aI3343
aa(lp2262
a(lp2263
a(lp2264
a(lp2265
a(lp2266
a(lp2267
a(lp2268
a(lp2269
a(lp2270
a(lp2271
a(lp2272
a(lp2273
a(lp2274
a(lp2275
a(lp2276
a(lp2277
a(lp2278
a(lp2279
a(lp2280
a(lp2281
a(lp2282
a(lp2283
a(lp2284
a(lp2285
a(lp2286
a(lp2287
a(lp2288
a(lp2289
a(lp2290
a(lp2291
a(lp2292
a(lp2293
I90
aI455
aI820
aI1185
aI1550
aI1915
aI2280
aI2645
aI3010
aI3375
aa(lp2294
a(lp2295
a(lp2296
a(lp2297
a(lp2298
a(lp2299
a(lp2300
a(lp2301
a(lp2302
a(lp2303
a(lp2304
a(lp2305
a(lp2306
a(lp2307
a(lp2308
a(lp2309
a(lp2310
a(lp2311
a(lp2312
a(lp2313
a(lp2314
a(lp2315
a(lp2316
a(lp2317
a(lp2318
a(lp2319
a(lp2320
a(lp2321
a(lp2322
a(lp2323
a(lp2324
a(lp2325
a(lp2326
a(lp2327
a(lp2328
a(lp2329
a(lp2330
a(lp2331
a(lp2332
a(lp2333
a(lp2334
a(lp2335
a(lp2336
a(lp2337
a(lp2338
a(lp2339
a(lp2340
a(lp2341
I138
aI503
aI868
aI1233
aI1598
aI1963
aI2328
aI2693
aI3058
aI3423
aa(lp2342
a(lp2343
a(lp2344
a(lp2345
a(lp2346
a(lp2347
a(lp2348
a(lp2349
a(lp2350
a(lp2351
a(lp2352
a(lp2353
a(lp2354
a(lp2355
a(lp2356
a(lp2357
a(lp2358
a(lp2359
a(lp2360
a(lp2361
a(lp2362
a(lp2363
a(lp2364
a(lp2365
a(lp2366
a(lp2367
a(lp2368
a(lp2369
a(lp2370
a(lp2371
a(lp2372
a(lp2373
a(lp2374
a(lp2375
a(lp2376
a(lp2377
a(lp2378
a(lp2379
a(lp2380
I177
aI542
aI907
aI1272
aI1637
aI2002
aI2367
aI2732
aI3097
aI3462
aa(lp2381
a(lp2382
I179
aI544
aI909
aI1274
aI1639
aI2004
aI2369
aI2734
aI3099
aI3464
aa(lp2383
a(lp2384
a(lp2385
a(lp2386
a(lp2387
a(lp2388
a(lp2389
a(lp2390
a(lp2391
a(lp2392
a(lp2393
a(lp2394
a(lp2395
a(lp2396
a(lp2397
a(lp2398
I195
aI560
aI925
aI1290
aI1655
aI2020
aI2385
aI2750
aI3115
aI3480
aa(lp2399
a(lp2400
a(lp2401
a(lp2402
a(lp2403
a(lp2404
a(lp2405
I202
aI567
aI932
aI1297
aI1662
aI2027
aI2392
aI2757
aI3122
aI3487
aa(lp2406
a(lp2407
a(lp2408
a(lp2409
a(lp2410
a(lp2411
a(lp2412
a(lp2413
a(lp2414
a(lp2415
a(lp2416
a(lp2417
a(lp2418
a(lp2419
a(lp2420
a(lp2421
I218
aI583
aI948
aI1313
aI1678
aI2043
aI2408
aI2773
aI3138
aI3503
aa(lp2422
a(lp2423
a(lp2424
a(lp2425
a(lp2426
a(lp2427
a(lp2428
a(lp2429
a(lp2430
a(lp2431
a(lp2432
a(lp2433
a(lp2434
a(lp2435
a(lp2436
a(lp2437
a(lp2438
a(lp2439
a(lp2440
a(lp2441
a(lp2442
a(lp2443
a(lp2444
I241
aI606
aI971
aI1336
aI1701
aI2066
aI2431
aI2796
aI3161
aI3526
aa(lp2445
a(lp2446
I243
aI608
aI973
aI1338
aI1703
aI2068
aI2433
aI2798
aI3163
aI3528
aa(lp2447
a(lp2448
a(lp2449
a(lp2450
a(lp2451
a(lp2452
a(lp2453
I250
aI615
aI980
aI1345
aI1710
aI2075
aI2440
aI2805
aI3170
aI3535
aa(lp2454
a(lp2455
a(lp2456
a(lp2457
a(lp2458
a(lp2459
a(lp2460
I257
aI622
aI987
aI1352
aI1717
aI2082
aI2447
aI2812
aI3177
aI3542
aa(lp2461
a(lp2462
a(lp2463
a(lp2464
a(lp2465
a(lp2466
a(lp2467
a(lp2468
a(lp2469
a(lp2470
a(lp2471
a(lp2472
a(lp2473
a(lp2474
a(lp2475
a(lp2476
a(lp2477
a(lp2478
a(lp2479
a(lp2480
a(lp2481
a(lp2482
a(lp2483
a(lp2484
a(lp2485
a(lp2486
a(lp2487
a(lp2488
a(lp2489
a(lp2490
a(lp2491
a(lp2492
a(lp2493
a(lp2494
a(lp2495
a(lp2496
a(lp2497
a(lp2498
a(lp2499
a(lp2500
a(lp2501
a(lp2502
a(lp2503
a(lp2504
a(lp2505
a(lp2506
a(lp2507
a(lp2508
a(lp2509
a(lp2510
a(lp2511
a(lp2512
a(lp2513
a(lp2514
a(lp2515
a(lp2516
a(lp2517
a(lp2518
a(lp2519
a(lp2520
a(lp2521
a(lp2522
a(lp2523
a(lp2524
a(lp2525
a(lp2526
a(lp2527
a(lp2528
a(lp2529
a(lp2530
a(lp2531
a(lp2532
a(lp2533
a(lp2534
a(lp2535
a(lp2536
a(lp2537
a(lp2538
a(lp2539
a(lp2540
a(lp2541
a(lp2542
a(lp2543
a(lp2544
a(lp2545
a(lp2546
a(lp2547
a(lp2548
a(lp2549
a(lp2550
a(lp2551
a(lp2552
a(lp2553
a(lp2554
a(lp2555
a(lp2556
I353
aI718
aI1083
aI1448
aI1813
aI2178
aI2543
aI2908
aI3273
aI3638
aa(lp2557
a(lp2558
a(lp2559
a(lp2560
a(lp2561
a(lp2562
a(lp2563
a(lp2564
a(lp2565
a(lp2566
a(lp2567
a(lp2568
a(lp2569
a(lp2570
a(lp2571
a(lp2572
a(lp2573
a(lp2574
a(lp2575
a(lp2576
a(lp2577
a(lp2578
a(lp2579
a(lp2580
a(lp2581
a(lp2582
a(lp2583
a(lp2584
a(lp2585
a(lp2586
a(lp2587
a(lp2588
a(lp2589
a(lp2590
a(lp2591
a(lp2592
a(lp2593
a(lp2594
a(lp2595
a(lp2596
a(lp2597
a(lp2598
a(lp2599
a(lp2600
a(lp2601
a(lp2602
a(lp2603
a(lp2604
a(lp2605
a(lp2606
a(lp2607
a(lp2608
a(lp2609
a(lp2610
a(lp2611
a(lp2612
a(lp2613
a(lp2614
a(lp2615
a(lp2616
a(lp2617
a(lp2618
a(lp2619
a(lp2620
a(lp2621
a(lp2622
a(lp2623
a(lp2624
a(lp2625
a(lp2626
I58
aI423
aI788
aI1153
aI1518
aI1883
aI2248
aI2613
aI2978
aI3343
aa(lp2627
a(lp2628
a(lp2629
a(lp2630
a(lp2631
a(lp2632
a(lp2633
a(lp2634
a(lp2635
a(lp2636
a(lp2637
a(lp2638
a(lp2639
a(lp2640
a(lp2641
a(lp2642
a(lp2643
a(lp2644
a(lp2645
a(lp2646
a(lp2647
a(lp2648
a(lp2649
a(lp2650
a(lp2651
a(lp2652
a(lp2653
a(lp2654
a(lp2655
a(lp2656
a(lp2657
a(lp2658
I90
aI455
aI820
aI1185
aI1550
aI1915
aI2280
aI2645
aI3010
aI3375
aa(lp2659
a(lp2660
a(lp2661
a(lp2662
a(lp2663
a(lp2664
a(lp2665
a(lp2666
a(lp2667
a(lp2668
a(lp2669
a(lp2670
a(lp2671
a(lp2672
a(lp2673
a(lp2674
a(lp2675
a(lp2676
a(lp2677
a(lp2678
a(lp2679
a(lp2680
a(lp2681
a(lp2682
a(lp2683
a(lp2684
a(lp2685
a(lp2686
a(lp2687
a(lp2688
a(lp2689
a(lp2690
a(lp2691
a(lp2692
a(lp2693
a(lp2694
a(lp2695
a(lp2696
a(lp2697
a(lp2698
a(lp2699
a(lp2700
a(lp2701
a(lp2702
a(lp2703
a(lp2704
a(lp2705
a(lp2706
I138
aI503
aI868
aI1233
aI1598
aI1963
aI2328
aI2693
aI3058
aI3423
aa(lp2707
a(lp2708
a(lp2709
a(lp2710
a(lp2711
a(lp2712
a(lp2713
a(lp2714
a(lp2715
a(lp2716
a(lp2717
a(lp2718
a(lp2719
a(lp2720
a(lp2721
a(lp2722
a(lp2723
a(lp2724
a(lp2725
a(lp2726
a(lp2727
a(lp2728
a(lp2729
a(lp2730
a(lp2731
a(lp2732
a(lp2733
a(lp2734
a(lp2735
a(lp2736
a(lp2737
a(lp2738
a(lp2739
a(lp2740
a(lp2741
a(lp2742
a(lp2743
a(lp2744
a(lp2745
I177
aI542
aI907
aI1272
aI1637
aI2002
aI2367
aI2732
aI3097
aI3462
aa(lp2746
a(lp2747
I179
aI544
aI909
aI1274
aI1639
aI2004
aI2369
aI2734
aI3099
aI3464
aa(lp2748
a(lp2749
a(lp2750
a(lp2751
a(lp2752
a(lp2753
a(lp2754
a(lp2755
a(lp2756
a(lp2757
a(lp2758
a(lp2759
a(lp2760
a(lp2761
a(lp2762
a(lp2763
I195
aI560
aI925
aI1290
aI1655
aI2020
aI2385
aI2750
aI3115
aI3480
aa(lp2764
a(lp2765
a(lp2766
a(lp2767
a(lp2768
a(lp2769
a(lp2770
I202
aI567
aI932
aI1297
aI1662
aI2027
aI2392
aI2757
aI3122
aI3487
aa(lp2771
a(lp2772
a(lp2773
a(lp2774
a(lp2775
a(lp2776
a(lp2777
a(lp2778
a(lp2779
a(lp2780
a(lp2781
a(lp2782
a(lp2783
a(lp2784
a(lp2785
a(lp2786
I218
aI583
aI948
aI1313
aI1678
aI2043
aI2408
aI2773
aI3138
aI3503
aa(lp2787
a(lp2788
a(lp2789
a(lp2790
a(lp2791
a(lp2792
a(lp2793
a(lp2794
a(lp2795
a(lp2796
a(lp2797
a(lp2798
a(lp2799
a(lp2800
a(lp2801
a(lp2802
a(lp2803
a(lp2804
a(lp2805
a(lp2806
a(lp2807
a(lp2808
a(lp2809
I241
aI606
aI971
aI1336
aI1701
aI2066
aI2431
aI2796
aI3161
aI3526
aa(lp2810
a(lp2811
I243
aI608
aI973
aI1338
aI1703
aI2068
aI2433
aI2798
aI3163
aI3528
aa(lp2812
a(lp2813
a(lp2814
a(lp2815
a(lp2816
a(lp2817
a(lp2818
I250
aI615
aI980
aI1345
aI1710
aI2075
aI2440
aI2805
aI3170
aI3535
aa(lp2819
a(lp2820
a(lp2821
a(lp2822
a(lp2823
a(lp2824
a(lp2825
I257
aI622
aI987
aI1352
aI1717
aI2082
aI2447
aI2812
aI3177
aI3542
aa(lp2826
a(lp2827
a(lp2828
a(lp2829
a(lp2830
a(lp2831
a(lp2832
a(lp2833
a(lp2834
a(lp2835
a(lp2836
a(lp2837
a(lp2838
a(lp2839
a(lp2840
a(lp2841
a(lp2842
a(lp2843
a(lp2844
a(lp2845
a(lp2846
a(lp2847
a(lp2848
a(lp2849
a(lp2850
a(lp2851
a(lp2852
a(lp2853
a(lp2854
a(lp2855
a(lp2856
a(lp2857
a(lp2858
a(lp2859
a(lp2860
a(lp2861
a(lp2862
a(lp2863
a(lp2864
a(lp2865
a(lp2866
a(lp2867
a(lp2868
a(lp2869
a(lp2870
a(lp2871
a(lp2872
a(lp2873
a(lp2874
a(lp2875
a(lp2876
a(lp2877
a(lp2878
a(lp2879
a(lp2880
a(lp2881
a(lp2882
a(lp2883
a(lp2884
a(lp2885
a(lp2886
a(lp2887
a(lp2888
a(lp2889
a(lp2890
a(lp2891
a(lp2892
a(lp2893
a(lp2894
a(lp2895
a(lp2896
a(lp2897
a(lp2898
a(lp2899
a(lp2900
a(lp2901
a(lp2902
a(lp2903
a(lp2904
a(lp2905
a(lp2906
a(lp2907
a(lp2908
a(lp2909
a(lp2910
a(lp2911
a(lp2912
a(lp2913
a(lp2914
a(lp2915
a(lp2916
a(lp2917
a(lp2918
a(lp2919
a(lp2920
a(lp2921
I353
aI718
aI1083
aI1448
aI1813
aI2178
aI2543
aI2908
aI3273
aI3638
aa(lp2922
a(lp2923
a(lp2924
a(lp2925
a(lp2926
a(lp2927
a(lp2928
a(lp2929
a(lp2930
a(lp2931
a(lp2932
a(lp2933
a(lp2934
a(lp2935
a(lp2936
a(lp2937
a(lp2938
a(lp2939
a(lp2940
a(lp2941
a(lp2942
a(lp2943
a(lp2944
a(lp2945
a(lp2946
a(lp2947
a(lp2948
a(lp2949
a(lp2950
a(lp2951
a(lp2952
a(lp2953
a(lp2954
a(lp2955
a(lp2956
a(lp2957
a(lp2958
a(lp2959
a(lp2960
a(lp2961
a(lp2962
a(lp2963
a(lp2964
a(lp2965
a(lp2966
a(lp2967
a(lp2968
a(lp2969
a(lp2970
a(lp2971
a(lp2972
a(lp2973
a(lp2974
a(lp2975
a(lp2976
a(lp2977
a(lp2978
a(lp2979
a(lp2980
a(lp2981
a(lp2982
a(lp2983
a(lp2984
a(lp2985
a(lp2986
a(lp2987
a(lp2988
a(lp2989
a(lp2990
a(lp2991
I58
aI423
aI788
aI1153
aI1518
aI1883
aI2248
aI2613
aI2978
aI3343
aa(lp2992
a(lp2993
a(lp2994
a(lp2995
a(lp2996
a(lp2997
a(lp2998
a(lp2999
a(lp3000
a(lp3001
a(lp3002
a(lp3003
a(lp3004
a(lp3005
a(lp3006
a(lp3007
a(lp3008
a(lp3009
a(lp3010
a(lp3011
a(lp3012
a(lp3013
a(lp3014
a(lp3015
a(lp3016
a(lp3017
a(lp3018
a(lp3019
a(lp3020
a(lp3021
a(lp3022
a(lp3023
I90
aI455
aI820
aI1185
aI1550
aI1915
aI2280
aI2645
aI3010
aI3375
aa(lp3024
a(lp3025
a(lp3026
a(lp3027
a(lp3028
a(lp3029
a(lp3030
a(lp3031
a(lp3032
a(lp3033
a(lp3034
a(lp3035
a(lp3036
a(lp3037
a(lp3038
a(lp3039
a(lp3040
a(lp3041
a(lp3042
a(lp3043
a(lp3044
a(lp3045
a(lp3046
a(lp3047
a(lp3048
a(lp3049
a(lp3050
a(lp3051
a(lp3052
a(lp3053
a(lp3054
a(lp3055
a(lp3056
a(lp3057
a(lp3058
a(lp3059
a(lp3060
a(lp3061
a(lp3062
a(lp3063
a(lp3064
a(lp3065
a(lp3066
a(lp3067
a(lp3068
a(lp3069
a(lp3070
a(lp3071
I138
aI503
aI868
aI1233
aI1598
aI1963
aI2328
aI2693
aI3058
aI3423
aa(lp3072
a(lp3073
a(lp3074
a(lp3075
a(lp3076
a(lp3077
a(lp3078
a(lp3079
a(lp3080
a(lp3081
a(lp3082
a(lp3083
a(lp3084
a(lp3085
a(lp3086
a(lp3087
a(lp3088
a(lp3089
a(lp3090
a(lp3091
a(lp3092
a(lp3093
a(lp3094
a(lp3095
a(lp3096
a(lp3097
a(lp3098
a(lp3099
a(lp3100
a(lp3101
a(lp3102
a(lp3103
a(lp3104
a(lp3105
a(lp3106
a(lp3107
a(lp3108
a(lp3109
a(lp3110
I177
aI542
aI907
aI1272
aI1637
aI2002
aI2367
aI2732
aI3097
aI3462
aa(lp3111
a(lp3112
I179
aI544
aI909
aI1274
aI1639
aI2004
aI2369
aI2734
aI3099
aI3464
aa(lp3113
a(lp3114
a(lp3115
a(lp3116
a(lp3117
a(lp3118
a(lp3119
a(lp3120
a(lp3121
a(lp3122
a(lp3123
a(lp3124
a(lp3125
a(lp3126
a(lp3127
a(lp3128
I195
aI560
aI925
aI1290
aI1655
aI2020
aI2385
aI2750
aI3115
aI3480
aa(lp3129
a(lp3130
a(lp3131
a(lp3132
a(lp3133
a(lp3134
a(lp3135
I202
aI567
aI932
aI1297
aI1662
aI2027
aI2392
aI2757
aI3122
aI3487
aa(lp3136
a(lp3137
a(lp3138
a(lp3139
a(lp3140
a(lp3141
a(lp3142
a(lp3143
a(lp3144
a(lp3145
a(lp3146
a(lp3147
a(lp3148
a(lp3149
a(lp3150
a(lp3151
I218
aI583
aI948
aI1313
aI1678
aI2043
aI2408
aI2773
aI3138
aI3503
aa(lp3152
a(lp3153
a(lp3154
a(lp3155
a(lp3156
a(lp3157
a(lp3158
a(lp3159
a(lp3160
a(lp3161
a(lp3162
a(lp3163
a(lp3164
a(lp3165
a(lp3166
a(lp3167
a(lp3168
a(lp3169
a(lp3170
a(lp3171
a(lp3172
a(lp3173
a(lp3174
I241
aI606
aI971
aI1336
aI1701
aI2066
aI2431
aI2796
aI3161
aI3526
aa(lp3175
a(lp3176
I243
aI608
aI973
aI1338
aI1703
aI2068
aI2433
aI2798
aI3163
aI3528
aa(lp3177
a(lp3178
a(lp3179
a(lp3180
a(lp3181
a(lp3182
a(lp3183
I250
aI615
aI980
aI1345
aI1710
aI2075
aI2440
aI2805
aI3170
aI3535
aa(lp3184
a(lp3185
a(lp3186
a(lp3187
a(lp3188
a(lp3189
a(lp3190
I257
aI622
aI987
aI1352
aI1717
aI2082
aI2447
aI2812
aI3177
aI3542
aa(lp3191
a(lp3192
a(lp3193
a(lp3194
a(lp3195
a(lp3196
a(lp3197
a(lp3198
a(lp3199
a(lp3200
a(lp3201
a(lp3202
a(lp3203
a(lp3204
a(lp3205
a(lp3206
a(lp3207
a(lp3208
a(lp3209
a(lp3210
a(lp3211
a(lp3212
a(lp3213
a(lp3214
a(lp3215
a(lp3216
a(lp3217
a(lp3218
a(lp3219
a(lp3220
a(lp3221
a(lp3222
a(lp3223
a(lp3224
a(lp3225
a(lp3226
a(lp3227
a(lp3228
a(lp3229
a(lp3230
a(lp3231
a(lp3232
a(lp3233
a(lp3234
a(lp3235
a(lp3236
a(lp3237
a(lp3238
a(lp3239
a(lp3240
a(lp3241
a(lp3242
a(lp3243
a(lp3244
a(lp3245
a(lp3246
a(lp3247
a(lp3248
a(lp3249
a(lp3250
a(lp3251
a(lp3252
a(lp3253
a(lp3254
a(lp3255
a(lp3256
a(lp3257
a(lp3258
a(lp3259
a(lp3260
a(lp3261
a(lp3262
a(lp3263
a(lp3264
a(lp3265
a(lp3266
a(lp3267
a(lp3268
a(lp3269
a(lp3270
a(lp3271
a(lp3272
a(lp3273
a(lp3274
a(lp3275
a(lp3276
a(lp3277
a(lp3278
a(lp3279
a(lp3280
a(lp3281
a(lp3282
a(lp3283
a(lp3284
a(lp3285
a(lp3286
I353
aI718
aI1083
aI1448
aI1813
aI2178
aI2543
aI2908
aI3273
aI3638
aa(lp3287
a(lp3288
a(lp3289
a(lp3290
a(lp3291
a(lp3292
a(lp3293
a(lp3294
a(lp3295
a(lp3296
a(lp3297
a(lp3298
a(lp3299
a(lp3300
a(lp3301
a(lp3302
a(lp3303
a(lp3304
a(lp3305
a(lp3306
a(lp3307
a(lp3308
a(lp3309
a(lp3310
a(lp3311
a(lp3312
a(lp3313
a(lp3314
a(lp3315
a(lp3316
a(lp3317
a(lp3318
a(lp3319
a(lp3320
a(lp3321
a(lp3322
a(lp3323
a(lp3324
a(lp3325
a(lp3326
a(lp3327
a(lp3328
a(lp3329
a(lp3330
a(lp3331
a(lp3332
a(lp3333
a(lp3334
a(lp3335
a(lp3336
a(lp3337
a(lp3338
a(lp3339
a(lp3340
a(lp3341
a(lp3342
a(lp3343
a(lp3344
a(lp3345
a(lp3346
a(lp3347
a(lp3348
a(lp3349
a(lp3350
a(lp3351
a(lp3352
a(lp3353
a(lp3354
a(lp3355
a(lp3356
I58
aI423
aI788
aI1153
aI1518
aI1883
aI2248
aI2613
aI2978
aI3343
aa(lp3357
a(lp3358
a(lp3359
a(lp3360
a(lp3361
a(lp3362
a(lp3363
a(lp3364
a(lp3365
a(lp3366
a(lp3367
a(lp3368
a(lp3369
a(lp3370
a(lp3371
a(lp3372
a(lp3373
a(lp3374
a(lp3375
a(lp3376
a(lp3377
a(lp3378
a(lp3379
a(lp3380
a(lp3381
a(lp3382
a(lp3383
a(lp3384
a(lp3385
a(lp3386
a(lp3387
a(lp3388
I90
aI455
aI820
aI1185
aI1550
aI1915
aI2280
aI2645
aI3010
aI3375
aa(lp3389
a(lp3390
a(lp3391
a(lp3392
a(lp3393
a(lp3394
a(lp3395
a(lp3396
a(lp3397
a(lp3398
a(lp3399
a(lp3400
a(lp3401
a(lp3402
a(lp3403
a(lp3404
a(lp3405
a(lp3406
a(lp3407
a(lp3408
a(lp3409
a(lp3410
a(lp3411
a(lp3412
a(lp3413
a(lp3414
a(lp3415
a(lp3416
a(lp3417
a(lp3418
a(lp3419
a(lp3420
a(lp3421
a(lp3422
a(lp3423
a(lp3424
a(lp3425
a(lp3426
a(lp3427
a(lp3428
a(lp3429
a(lp3430
a(lp3431
a(lp3432
a(lp3433
a(lp3434
a(lp3435
a(lp3436
I138
aI503
aI868
aI1233
aI1598
aI1963
aI2328
aI2693
aI3058
aI3423
aa(lp3437
a(lp3438
a(lp3439
a(lp3440
a(lp3441
a(lp3442
a(lp3443
a(lp3444
a(lp3445
a(lp3446
a(lp3447
a(lp3448
a(lp3449
a(lp3450
a(lp3451
a(lp3452
a(lp3453
a(lp3454
a(lp3455
a(lp3456
a(lp3457
a(lp3458
a(lp3459
a(lp3460
a(lp3461
a(lp3462
a(lp3463
a(lp3464
a(lp3465
a(lp3466
a(lp3467
a(lp3468
a(lp3469
a(lp3470
a(lp3471
a(lp3472
a(lp3473
a(lp3474
a(lp3475
I177
aI542
aI907
aI1272
aI1637
aI2002
aI2367
aI2732
aI3097
aI3462
aa(lp3476
a(lp3477
I179
aI544
aI909
aI1274
aI1639
aI2004
aI2369
aI2734
aI3099
aI3464
aa(lp3478
a(lp3479
a(lp3480
a(lp3481
a(lp3482
a(lp3483
a(lp3484
a(lp3485
a(lp3486
a(lp3487
a(lp3488
a(lp3489
a(lp3490
a(lp3491
a(lp3492
a(lp3493
I195
aI560
aI925
aI1290
aI1655
aI2020
aI2385
aI2750
aI3115
aI3480
aa(lp3494
a(lp3495
a(lp3496
a(lp3497
a(lp3498
a(lp3499
a(lp3500
I202
aI567
aI932
aI1297
aI1662
aI2027
aI2392
aI2757
aI3122
aI3487
aa(lp3501
a(lp3502
a(lp3503
a(lp3504
a(lp3505
a(lp3506
a(lp3507
a(lp3508
a(lp3509
a(lp3510
a(lp3511
a(lp3512
a(lp3513
a(lp3514
a(lp3515
a(lp3516
I218
aI583
aI948
aI1313
aI1678
aI2043
aI2408
aI2773
aI3138
aI3503
aa(lp3517
a(lp3518
a(lp3519
a(lp3520
a(lp3521
a(lp3522
a(lp3523
a(lp3524
a(lp3525
a(lp3526
a(lp3527
a(lp3528
a(lp3529
a(lp3530
a(lp3531
a(lp3532
a(lp3533
a(lp3534
a(lp3535
a(lp3536
a(lp3537
a(lp3538
a(lp3539
I241
aI606
aI971
aI1336
aI1701
aI2066
aI2431
aI2796
aI3161
aI3526
aa(lp3540
a(lp3541
I243
aI608
aI973
aI1338
aI1703
aI2068
aI2433
aI2798
aI3163
aI3528
aa(lp3542
a(lp3543
a(lp3544
a(lp3545
a(lp3546
a(lp3547
a(lp3548
I250
aI615
aI980
aI1345
aI1710
aI2075
aI2440
aI2805
aI3170
aI3535
aa(lp3549
a(lp3550
a(lp3551
a(lp3552
a(lp3553
a(lp3554
a(lp3555
I257
aI622
aI987
aI1352
aI1717
aI2082
aI2447
aI2812
aI3177
aI3542
aa(lp3556
a(lp3557
a(lp3558
a(lp3559
a(lp3560
a(lp3561
a(lp3562
a(lp3563
a(lp3564
a(lp3565
a(lp3566
a(lp3567
a(lp3568
a(lp3569
a(lp3570
a(lp3571
a(lp3572
a(lp3573
a(lp3574
a(lp3575
a(lp3576
a(lp3577
a(lp3578
a(lp3579
a(lp3580
a(lp3581
a(lp3582
a(lp3583
a(lp3584
a(lp3585
a(lp3586
a(lp3587
a(lp3588
a(lp3589
a(lp3590
a(lp3591
a(lp3592
a(lp3593
a(lp3594
a(lp3595
a(lp3596
a(lp3597
a(lp3598
a(lp3599
a(lp3600
a(lp3601
a(lp3602
a(lp3603
a(lp3604
a(lp3605
a(lp3606
a(lp3607
a(lp3608
a(lp3609
a(lp3610
a(lp3611
a(lp3612
a(lp3613
a(lp3614
a(lp3615
a(lp3616
a(lp3617
a(lp3618
a(lp3619
a(lp3620
a(lp3621
a(lp3622
a(lp3623
a(lp3624
a(lp3625
a(lp3626
a(lp3627
a(lp3628
a(lp3629
a(lp3630
a(lp3631
a(lp3632
a(lp3633
a(lp3634
a(lp3635
a(lp3636
a(lp3637
a(lp3638
a(lp3639
a(lp3640
a(lp3641
a(lp3642
a(lp3643
a(lp3644
a(lp3645
a(lp3646
a(lp3647
a(lp3648
a(lp3649
a(lp3650
a(lp3651
I353
aI718
aI1083
aI1448
aI1813
aI2178
aI2543
aI2908
aI3273
aI3638
aa(lp3652
a(lp3653
a(lp3654
a(lp3655
a(lp3656
a(lp3657
a(lp3658
a(lp3659
a(lp3660
a(lp3661
a(lp3662
atbsS'format'
p3663
S'lil'
p3664
sS'dtype'
p3665
g10
(S'f8'
I0
I1
tRp3666
(I3
S'<'
NNNI-1
I-1
I0
tbsS'_shape'
p3667
(I3650
I3650
tp3668
sS'maxprint'
p3669
I50
sS'data'
p3670
g7
(g8
(I0
tS'b'
tRp3671
(I1
(I3650
tg11
I00
(lp3672
(lp3673
a(lp3674
a(lp3675
a(lp3676
a(lp3677
a(lp3678
a(lp3679
a(lp3680
a(lp3681
a(lp3682
a(lp3683
a(lp3684
a(lp3685
a(lp3686
a(lp3687
a(lp3688
a(lp3689
a(lp3690
a(lp3691
a(lp3692
a(lp3693
a(lp3694
a(lp3695
a(lp3696
a(lp3697
a(lp3698
a(lp3699
a(lp3700
a(lp3701
a(lp3702
a(lp3703
a(lp3704
a(lp3705
a(lp3706
a(lp3707
a(lp3708
a(lp3709
a(lp3710
a(lp3711
a(lp3712
a(lp3713
a(lp3714
a(lp3715
a(lp3716
a(lp3717
a(lp3718
a(lp3719
a(lp3720
a(lp3721
a(lp3722
a(lp3723
a(lp3724
a(lp3725
a(lp3726
a(lp3727
a(lp3728
a(lp3729
a(lp3730
a(lp3731
F8830.3414941037772
aF-11.331258065183647
aF5.5149456557046506
aF180.9969262467348
aF-29.174128712838865
aF-844.92629639498773
aF-125.27632407000056
aF41.943678752431879
aF4452.6373557118859
aF579.47125924329157
aa(lp3732
a(lp3733
a(lp3734
a(lp3735
a(lp3736
a(lp3737
a(lp3738
a(lp3739
a(lp3740
a(lp3741
a(lp3742
a(lp3743
a(lp3744
a(lp3745
a(lp3746
a(lp3747
a(lp3748
a(lp3749
a(lp3750
a(lp3751
a(lp3752
a(lp3753
a(lp3754
a(lp3755
a(lp3756
a(lp3757
a(lp3758
a(lp3759
a(lp3760
a(lp3761
a(lp3762
a(lp3763
F7359.4001094079431
aF-2.3326151676883455
aF217.84451860185072
aF-76.873493526363745
aF-91.622985110006994
aF-38.328681739585591
aF656.60724430927075
aF-18.338687368668616
aF3843.7474813690642
aF288.55483265033399
aa(lp3764
a(lp3765
a(lp3766
a(lp3767
a(lp3768
a(lp3769
a(lp3770
a(lp3771
a(lp3772
a(lp3773
a(lp3774
a(lp3775
a(lp3776
a(lp3777
a(lp3778
a(lp3779
a(lp3780
a(lp3781
a(lp3782
a(lp3783
a(lp3784
a(lp3785
a(lp3786
a(lp3787
a(lp3788
a(lp3789
a(lp3790
a(lp3791
a(lp3792
a(lp3793
a(lp3794
a(lp3795
a(lp3796
a(lp3797
a(lp3798
a(lp3799
a(lp3800
a(lp3801
a(lp3802
a(lp3803
a(lp3804
a(lp3805
a(lp3806
a(lp3807
a(lp3808
a(lp3809
a(lp3810
a(lp3811
F5210.2323616409758
aF-10.954711093802416
aF289.47079755425875
aF205.80877926335006
aF-69.226406296252208
aF-380.97831254191306
aF-326.76454271296507
aF-2.8717376920894822
aF2733.2657069223387
aF285.97152255116498
aa(lp3812
a(lp3813
a(lp3814
a(lp3815
a(lp3816
a(lp3817
a(lp3818
a(lp3819
a(lp3820
a(lp3821
a(lp3822
a(lp3823
a(lp3824
a(lp3825
a(lp3826
a(lp3827
a(lp3828
a(lp3829
a(lp3830
a(lp3831
a(lp3832
a(lp3833
a(lp3834
a(lp3835
a(lp3836
a(lp3837
a(lp3838
a(lp3839
a(lp3840
a(lp3841
a(lp3842
a(lp3843
a(lp3844
a(lp3845
a(lp3846
a(lp3847
a(lp3848
a(lp3849
a(lp3850
F1797.5537851100398
aF-1.0386493443093059
aF195.58742607728163
aF722.46518030283369
aF53.766859764436958
aF226.37823917648348
aF-379.66234884834194
aF14.351366672826771
aF458.58053212555205
aF84.665308008879947
aa(lp3851
a(lp3852
F1489.9512592592146
aF-1.6607913266852847
aF16.196067065266107
aF469.96014759770333
aF79.971592015226634
aF-277.52655853419128
aF-203.58694996502891
aF6.7962872662974405
aF520.6178812500184
aF53.861518267694919
aa(lp3853
a(lp3854
a(lp3855
a(lp3856
a(lp3857
a(lp3858
a(lp3859
a(lp3860
a(lp3861
a(lp3862
a(lp3863
a(lp3864
a(lp3865
a(lp3866
a(lp3867
a(lp3868
F165.77167372133772
aF-0.9890854357763601
aF12.659785397772794
aF521.15152442411272
aF-52.457393451277312
aF8.0648533185012639
aF67.544465309765656
aF22.4089291123164
aF-502.10064017619516
aF-62.041769410825509
aa(lp3869
a(lp3870
a(lp3871
a(lp3872
a(lp3873
a(lp3874
a(lp3875
F1071.9277113935277
aF-1.4352721677823865
aF95.275665046301583
aF692.99078120366175
aF-47.182057016925683
aF162.17124709783093
aF26.90819371764519
aF20.847902248988248
aF6.6140628973698767
aF-36.20313009378151
aa(lp3876
a(lp3877
a(lp3878
a(lp3879
a(lp3880
a(lp3881
a(lp3882
a(lp3883
a(lp3884
a(lp3885
a(lp3886
a(lp3887
a(lp3888
a(lp3889
a(lp3890
a(lp3891
F89.961036664476524
aF-0.043419845496828202
aF54.441328600773886
aF203.74024316538453
aF24.2875245248797
aF-56.457558095246441
aF-56.534488734882871
aF2.785723651754779
aF-73.296500779918006
aF-8.8317534618909121
aa(lp3892
a(lp3893
a(lp3894
a(lp3895
a(lp3896
a(lp3897
a(lp3898
a(lp3899
a(lp3900
a(lp3901
a(lp3902
a(lp3903
a(lp3904
a(lp3905
a(lp3906
a(lp3907
a(lp3908
a(lp3909
a(lp3910
a(lp3911
a(lp3912
a(lp3913
a(lp3914
F-762.77801213109342
aF2.5166819739297352
aF159.96870743606451
aF-206.76786647300105
aF94.89478216551106
aF1239.9856302636181
aF118.69085980720229
aF2.2947268973894097
aF-123.32706020856676
aF-21.898675583997829
aa(lp3915
a(lp3916
F756.73817026000734
aF-1.4595908481851438
aF194.7422520132136
aF1203.6248682179007
aF-129.43552452071572
aF-185.93223209961707
aF-410.70399774412181
aF16.231708066527517
aF84.617812312615115
aF-6.4407165822899515
aa(lp3917
a(lp3918
a(lp3919
a(lp3920
a(lp3921
a(lp3922
a(lp3923
F259.09272238777703
aF0.36196112773723144
aF57.655837082393191
aF378.42428000089967
aF134.25876588257779
aF283.62652173541392
aF-114.78108987716951
aF10.144582773818911
aF122.62762751902301
aF21.630806656958157
aa(lp3924
a(lp3925
a(lp3926
a(lp3927
a(lp3928
a(lp3929
a(lp3930
F43.985978237515155
aF0.94600807187816827
aF-21.418339457568436
aF98.45273467590232
aF55.820303401787896
aF-113.53982287687359
aF-245.81684527902325
aF10.373538117391945
aF3.9163829512744996
aF-0.67184586782786937
aa(lp3931
a(lp3932
a(lp3933
a(lp3934
a(lp3935
a(lp3936
a(lp3937
a(lp3938
a(lp3939
a(lp3940
a(lp3941
a(lp3942
a(lp3943
a(lp3944
a(lp3945
a(lp3946
a(lp3947
a(lp3948
a(lp3949
a(lp3950
a(lp3951
a(lp3952
a(lp3953
a(lp3954
a(lp3955
a(lp3956
a(lp3957
a(lp3958
a(lp3959
a(lp3960
a(lp3961
a(lp3962
a(lp3963
a(lp3964
a(lp3965
a(lp3966
a(lp3967
a(lp3968
a(lp3969
a(lp3970
a(lp3971
a(lp3972
a(lp3973
a(lp3974
a(lp3975
a(lp3976
a(lp3977
a(lp3978
a(lp3979
a(lp3980
a(lp3981
a(lp3982
a(lp3983
a(lp3984
a(lp3985
a(lp3986
a(lp3987
a(lp3988
a(lp3989
a(lp3990
a(lp3991
a(lp3992
a(lp3993
a(lp3994
a(lp3995
a(lp3996
a(lp3997
a(lp3998
a(lp3999
a(lp4000
a(lp4001
a(lp4002
a(lp4003
a(lp4004
a(lp4005
a(lp4006
a(lp4007
a(lp4008
a(lp4009
a(lp4010
a(lp4011
a(lp4012
a(lp4013
a(lp4014
a(lp4015
a(lp4016
a(lp4017
a(lp4018
a(lp4019
a(lp4020
a(lp4021
a(lp4022
a(lp4023
a(lp4024
a(lp4025
a(lp4026
F14598.415617683713
aF-2.1745961475971853
aF84.326035221238271
aF316.21232210454764
aF667.99131559491798
aF1135.3865943419805
aF-24.929835262810229
aF61.111370541766519
aF5757.8348673814617
aF529.69750186093734
aa(lp4027
a(lp4028
a(lp4029
a(lp4030
a(lp4031
a(lp4032
a(lp4033
a(lp4034
a(lp4035
a(lp4036
a(lp4037
a(lp4038
a(lp4039
a(lp4040
a(lp4041
a(lp4042
a(lp4043
a(lp4044
a(lp4045
a(lp4046
a(lp4047
a(lp4048
a(lp4049
a(lp4050
a(lp4051
a(lp4052
a(lp4053
a(lp4054
a(lp4055
a(lp4056
a(lp4057
a(lp4058
a(lp4059
a(lp4060
a(lp4061
a(lp4062
a(lp4063
a(lp4064
a(lp4065
a(lp4066
a(lp4067
a(lp4068
a(lp4069
a(lp4070
a(lp4071
a(lp4072
a(lp4073
a(lp4074
a(lp4075
a(lp4076
a(lp4077
a(lp4078
a(lp4079
a(lp4080
a(lp4081
a(lp4082
a(lp4083
a(lp4084
a(lp4085
a(lp4086
a(lp4087
a(lp4088
a(lp4089
a(lp4090
a(lp4091
a(lp4092
a(lp4093
a(lp4094
a(lp4095
a(lp4096
F-11.312715320066502
aF0.02528355302899854
aF-0.22000740118599538
aF-0.94048946408520351
aF0.26874693581646625
aF2.7474628794266209
aF0.10210259304699321
aF0.049855342076909892
aF-8.5230994262275317
aF-1.216813427795671
aa(lp4097
a(lp4098
a(lp4099
a(lp4100
a(lp4101
a(lp4102
a(lp4103
a(lp4104
a(lp4105
a(lp4106
a(lp4107
a(lp4108
a(lp4109
a(lp4110
a(lp4111
a(lp4112
a(lp4113
a(lp4114
a(lp4115
a(lp4116
a(lp4117
a(lp4118
a(lp4119
a(lp4120
a(lp4121
a(lp4122
a(lp4123
a(lp4124
a(lp4125
a(lp4126
a(lp4127
a(lp4128
F-2.6761186933121905
aF0.0088413831811351429
aF-0.53488607987262071
aF0.12864088683173236
aF0.16120160761801117
aF-1.9523988981084983
aF-1.4091232070079229
aF0.060441640581387901
aF-4.8018624965173728
aF-0.50878701252088376
aa(lp4129
a(lp4130
a(lp4131
a(lp4132
a(lp4133
a(lp4134
a(lp4135
a(lp4136
a(lp4137
a(lp4138
a(lp4139
a(lp4140
a(lp4141
a(lp4142
a(lp4143
a(lp4144
a(lp4145
a(lp4146
a(lp4147
a(lp4148
a(lp4149
a(lp4150
a(lp4151
a(lp4152
a(lp4153
a(lp4154
a(lp4155
a(lp4156
a(lp4157
a(lp4158
a(lp4159
a(lp4160
a(lp4161
a(lp4162
a(lp4163
a(lp4164
a(lp4165
a(lp4166
a(lp4167
a(lp4168
a(lp4169
a(lp4170
a(lp4171
a(lp4172
a(lp4173
a(lp4174
a(lp4175
a(lp4176
F-11.225441545748005
aF0.030712132836896444
aF-0.64463251958635226
aF-0.61419216101921137
aF0.27550005332610539
aF0.95918454290355726
aF0.52753619805834262
aF0.0075762368600962304
aF-8.011211793945705
aF-0.97935889398215181
aa(lp4177
a(lp4178
a(lp4179
a(lp4180
a(lp4181
a(lp4182
a(lp4183
a(lp4184
a(lp4185
a(lp4186
a(lp4187
a(lp4188
a(lp4189
a(lp4190
a(lp4191
a(lp4192
a(lp4193
a(lp4194
a(lp4195
a(lp4196
a(lp4197
a(lp4198
a(lp4199
a(lp4200
a(lp4201
a(lp4202
a(lp4203
a(lp4204
a(lp4205
a(lp4206
a(lp4207
a(lp4208
a(lp4209
a(lp4210
a(lp4211
a(lp4212
a(lp4213
a(lp4214
a(lp4215
F-1.1355580475935767
aF0.046159165378867328
aF-1.5976242107029748
aF-3.3090049589290516
aF1.2960274298201568
aF-2.2001137800486958
aF0.051732251815650443
aF-0.055112181485128531
aF-3.7496971638795173
aF-0.72631287650892773
aa(lp4216
a(lp4217
F-1.6433317817643456
aF0.081946716079528414
aF-2.9464638728882164
aF-6.373057903630297
aF2.3634417534168506
aF-0.20680759327262876
aF-3.1258413635271154
aF-0.28735236412558152
aF-5.3424042523175785
aF-0.78984574436447019
aa(lp4218
a(lp4219
a(lp4220
a(lp4221
a(lp4222
a(lp4223
a(lp4224
a(lp4225
a(lp4226
a(lp4227
a(lp4228
a(lp4229
a(lp4230
a(lp4231
a(lp4232
a(lp4233
F-0.99662342822881556
aF0.020785706489334643
aF-0.062579386117533886
aF-4.1136903439209505
aF1.0368993885734312
aF0.95997469973241323
aF-0.63986573817231829
aF-0.143308209743509
aF-0.72575474518998817
aF-0.24678945553802123
aa(lp4234
a(lp4235
a(lp4236
a(lp4237
a(lp4238
a(lp4239
a(lp4240
F-1.3487088834640559
aF0.0095145086254078137
aF-0.55824855293984399
aF-1.7133003904490351
aF0.87482061872368178
aF-0.6605826663452774
aF-1.1215319228874421
aF-0.1016698947253758
aF-0.83490798719054737
aF-0.042998712923569826
aa(lp4241
a(lp4242
a(lp4243
a(lp4244
a(lp4245
a(lp4246
a(lp4247
a(lp4248
a(lp4249
a(lp4250
a(lp4251
a(lp4252
a(lp4253
a(lp4254
a(lp4255
a(lp4256
F-0.041174992582160286
aF0.010978615239132239
aF-1.0554573368071196
aF-3.7750852582840722
aF0.6930582302500099
aF0.33627223783305737
aF-0.84818634754624256
aF-0.068458078095190444
aF-0.33856045189573081
aF-0.0587678766761357
aa(lp4257
a(lp4258
a(lp4259
a(lp4260
a(lp4261
a(lp4262
a(lp4263
a(lp4264
a(lp4265
a(lp4266
a(lp4267
a(lp4268
a(lp4269
a(lp4270
a(lp4271
a(lp4272
a(lp4273
a(lp4274
a(lp4275
a(lp4276
a(lp4277
a(lp4278
a(lp4279
F2.5516636359412814
aF-0.36554106408459575
aF-1.7904316917949359
aF-2.3442765950676403
aF3.4639181301088229
aF-1.679147842992279
aF-2.7808373159743383
aF0.14172514273269599
aF-0.65457679276903491
aF-0.33380795905202376
aa(lp4280
a(lp4281
F-1.7229195972690015
aF0.0046478751403178364
aF-0.75609359814765575
aF-2.586609796489947
aF0.5001450469055424
aF0.74945742320475794
aF0.19686138413854692
aF-0.039866634993224181
aF-0.18662011380676802
aF0.029288481362410579
aa(lp4282
a(lp4283
a(lp4284
a(lp4285
a(lp4286
a(lp4287
a(lp4288
F0.29422670411172192
aF0.0057785332074899998
aF-0.64138978572714223
aF-3.4386408553910286
aF0.52814125295341796
aF-0.56064618503270935
aF0.30853085641879829
aF0.050439002974300706
aF-0.40563907788282449
aF0.058318350149022535
aa(lp4289
a(lp4290
a(lp4291
a(lp4292
a(lp4293
a(lp4294
a(lp4295
F0.88104251394494071
aF0.0099846353407428978
aF-0.53017989165571322
aF-3.8389860068654968
aF1.0514685261364676
aF-1.3038351703853479
aF-1.3558560496562677
aF0.086621990136315219
aF-0.76411590665959039
aF-0.16145435266512465
aa(lp4296
a(lp4297
a(lp4298
a(lp4299
a(lp4300
a(lp4301
a(lp4302
a(lp4303
a(lp4304
a(lp4305
a(lp4306
a(lp4307
a(lp4308
a(lp4309
a(lp4310
a(lp4311
a(lp4312
a(lp4313
a(lp4314
a(lp4315
a(lp4316
a(lp4317
a(lp4318
a(lp4319
a(lp4320
a(lp4321
a(lp4322
a(lp4323
a(lp4324
a(lp4325
a(lp4326
a(lp4327
a(lp4328
a(lp4329
a(lp4330
a(lp4331
a(lp4332
a(lp4333
a(lp4334
a(lp4335
a(lp4336
a(lp4337
a(lp4338
a(lp4339
a(lp4340
a(lp4341
a(lp4342
a(lp4343
a(lp4344
a(lp4345
a(lp4346
a(lp4347
a(lp4348
a(lp4349
a(lp4350
a(lp4351
a(lp4352
a(lp4353
a(lp4354
a(lp4355
a(lp4356
a(lp4357
a(lp4358
a(lp4359
a(lp4360
a(lp4361
a(lp4362
a(lp4363
a(lp4364
a(lp4365
a(lp4366
a(lp4367
a(lp4368
a(lp4369
a(lp4370
a(lp4371
a(lp4372
a(lp4373
a(lp4374
a(lp4375
a(lp4376
a(lp4377
a(lp4378
a(lp4379
a(lp4380
a(lp4381
a(lp4382
a(lp4383
a(lp4384
a(lp4385
a(lp4386
a(lp4387
a(lp4388
a(lp4389
a(lp4390
a(lp4391
F-1.7856865597298821
aF0.0015202977765582659
aF-0.064518207443242659
aF-0.11032287861034717
aF-0.11045872272408275
aF-0.4253671581633256
aF-0.049416948311176156
aF0.0366097874238136
aF-1.8998560585847812
aF-0.23493123835205409
aa(lp4392
a(lp4393
a(lp4394
a(lp4395
a(lp4396
a(lp4397
a(lp4398
a(lp4399
a(lp4400
a(lp4401
a(lp4402
a(lp4403
a(lp4404
a(lp4405
a(lp4406
a(lp4407
a(lp4408
a(lp4409
a(lp4410
a(lp4411
a(lp4412
a(lp4413
a(lp4414
a(lp4415
a(lp4416
a(lp4417
a(lp4418
a(lp4419
a(lp4420
a(lp4421
a(lp4422
a(lp4423
a(lp4424
a(lp4425
a(lp4426
a(lp4427
a(lp4428
a(lp4429
a(lp4430
a(lp4431
a(lp4432
a(lp4433
a(lp4434
a(lp4435
a(lp4436
a(lp4437
a(lp4438
a(lp4439
a(lp4440
a(lp4441
a(lp4442
a(lp4443
a(lp4444
a(lp4445
a(lp4446
a(lp4447
a(lp4448
a(lp4449
a(lp4450
a(lp4451
a(lp4452
a(lp4453
a(lp4454
a(lp4455
a(lp4456
a(lp4457
a(lp4458
a(lp4459
a(lp4460
a(lp4461
F5.5608968096976241
aF-0.22160051571518125
aF1.0681995732397809
aF4.868536507274257
aF-2.3906354229552562
aF-75.841525415398792
aF-13.114019026261303
aF-1.0001508954360361
aF68.981304401916077
aF11.763914464779646
aa(lp4462
a(lp4463
a(lp4464
a(lp4465
a(lp4466
a(lp4467
a(lp4468
a(lp4469
a(lp4470
a(lp4471
a(lp4472
a(lp4473
a(lp4474
a(lp4475
a(lp4476
a(lp4477
a(lp4478
a(lp4479
a(lp4480
a(lp4481
a(lp4482
a(lp4483
a(lp4484
a(lp4485
a(lp4486
a(lp4487
a(lp4488
a(lp4489
a(lp4490
a(lp4491
a(lp4492
a(lp4493
F218.55621668009917
aF-0.50021071729133837
aF26.973891920079041
aF-2.9784068544813636
aF-4.8418698384011805
aF53.884096473666432
aF57.856955493207352
aF-2.9345358143473277
aF238.63687914627008
aF26.889054538514756
aa(lp4494
a(lp4495
a(lp4496
a(lp4497
a(lp4498
a(lp4499
a(lp4500
a(lp4501
a(lp4502
a(lp4503
a(lp4504
a(lp4505
a(lp4506
a(lp4507
a(lp4508
a(lp4509
a(lp4510
a(lp4511
a(lp4512
a(lp4513
a(lp4514
a(lp4515
a(lp4516
a(lp4517
a(lp4518
a(lp4519
a(lp4520
a(lp4521
a(lp4522
a(lp4523
a(lp4524
a(lp4525
a(lp4526
a(lp4527
a(lp4528
a(lp4529
a(lp4530
a(lp4531
a(lp4532
a(lp4533
a(lp4534
a(lp4535
a(lp4536
a(lp4537
a(lp4538
a(lp4539
a(lp4540
a(lp4541
F289.52629179679332
aF-0.6271397512414012
aF20.911804843315451
aF4.5674267479256514
aF-2.3598338616537262
aF19.229028225264955
aF-12.882217481635649
aF-0.11789409448681454
aF157.89054457204799
aF16.393991930652163
aa(lp4542
a(lp4543
a(lp4544
a(lp4545
a(lp4546
a(lp4547
a(lp4548
a(lp4549
a(lp4550
a(lp4551
a(lp4552
a(lp4553
a(lp4554
a(lp4555
a(lp4556
a(lp4557
a(lp4558
a(lp4559
a(lp4560
a(lp4561
a(lp4562
a(lp4563
a(lp4564
a(lp4565
a(lp4566
a(lp4567
a(lp4568
a(lp4569
a(lp4570
a(lp4571
a(lp4572
a(lp4573
a(lp4574
a(lp4575
a(lp4576
a(lp4577
a(lp4578
a(lp4579
a(lp4580
F195.69453044709917
aF-1.5481820270224489
aF68.668309438635333
aF156.55516207857545
aF-38.720811090797724
aF68.238379213880762
aF-13.397270492987445
aF2.8307511001912644
aF142.35176308829978
aF25.399771885759037
aa(lp4581
a(lp4582
F16.151928150520689
aF-2.979338376007945
aF90.735554181264888
aF188.97135163342682
aF-79.175522671448562
aF226.04807980997066
aF61.974915865903313
aF9.6047344300131954
aF224.55842412227867
aF32.117127091169095
aa(lp4583
a(lp4584
a(lp4585
a(lp4586
a(lp4587
a(lp4588
a(lp4589
a(lp4590
a(lp4591
a(lp4592
a(lp4593
a(lp4594
a(lp4595
a(lp4596
a(lp4597
a(lp4598
F12.655364844960104
aF-0.061831784137211798
aF1.046080377875569
aF16.805934333063988
aF-8.452103283929091
aF9.6666819437984941
aF7.7898428152423094
aF0.70476349200987443
aF8.9707131945004903
aF1.727544329810371
aa(lp4599
a(lp4600
a(lp4601
a(lp4602
a(lp4603
a(lp4604
a(lp4605
F95.371169095415098
aF-0.55349538286009192
aF100.8729341833714
aF5.0878263380127464
aF-46.354770688594726
aF15.535711384018214
aF82.172767434940397
aF5.2242093318000116
aF70.101424043400584
aF6.0437944426894319
aa(lp4606
a(lp4607
a(lp4608
a(lp4609
a(lp4610
a(lp4611
a(lp4612
a(lp4613
a(lp4614
a(lp4615
a(lp4616
a(lp4617
a(lp4618
a(lp4619
a(lp4620
a(lp4621
F54.400761539952214
aF-1.0456519095036754
aF135.04256086704913
aF513.08436744834648
aF-50.726036116000017
aF-51.274007040191805
aF-1.4336023146377386
aF7.4459748478084009
aF12.557490414177863
aF2.3966761242277812
aa(lp4622
a(lp4623
a(lp4624
a(lp4625
a(lp4626
a(lp4627
a(lp4628
a(lp4629
a(lp4630
a(lp4631
a(lp4632
a(lp4633
a(lp4634
a(lp4635
a(lp4636
a(lp4637
a(lp4638
a(lp4639
a(lp4640
a(lp4641
a(lp4642
a(lp4643
a(lp4644
F159.95834221627092
aF-1.7809586694284008
aF80.576509375873684
aF-7.8928275470957487
aF-58.079748121997454
aF91.605560292862265
aF167.73784761170418
aF-5.7881340609355902
aF24.991362401749484
aF4.683223586710028
aa(lp4645
a(lp4646
F194.73712384865394
aF-0.60160942894071923
aF51.612356344321597
aF374.52581551633557
aF-145.63220247509889
aF125.90929756584046
aF7.6608493770891073
aF4.5621483479862945
aF28.623447434483751
aF-0.90127443286291964
aa(lp4647
a(lp4648
a(lp4649
a(lp4650
a(lp4651
a(lp4652
a(lp4653
F57.653416263292456
aF-0.80391231449539191
aF78.484539756118465
aF442.02663787018537
aF-77.326053116166804
aF32.910931224705564
aF-103.6592891523469
aF-7.3423834123786946
aF55.421816824718917
aF-8.7350343846992473
aa(lp4654
a(lp4655
a(lp4656
a(lp4657
a(lp4658
a(lp4659
a(lp4660
F-21.321448961941769
aF-0.56222511091164051
aF45.242823887292616
aF330.66963016636919
aF-42.110256615046637
aF61.166413267699227
aF58.023494631243011
aF-3.0548349627679272
aF35.648558949219478
aF5.4926974968338982
aa(lp4661
a(lp4662
a(lp4663
a(lp4664
a(lp4665
a(lp4666
a(lp4667
a(lp4668
a(lp4669
a(lp4670
a(lp4671
a(lp4672
a(lp4673
a(lp4674
a(lp4675
a(lp4676
a(lp4677
a(lp4678
a(lp4679
a(lp4680
a(lp4681
a(lp4682
a(lp4683
a(lp4684
a(lp4685
a(lp4686
a(lp4687
a(lp4688
a(lp4689
a(lp4690
a(lp4691
a(lp4692
a(lp4693
a(lp4694
a(lp4695
a(lp4696
a(lp4697
a(lp4698
a(lp4699
a(lp4700
a(lp4701
a(lp4702
a(lp4703
a(lp4704
a(lp4705
a(lp4706
a(lp4707
a(lp4708
a(lp4709
a(lp4710
a(lp4711
a(lp4712
a(lp4713
a(lp4714
a(lp4715
a(lp4716
a(lp4717
a(lp4718
a(lp4719
a(lp4720
a(lp4721
a(lp4722
a(lp4723
a(lp4724
a(lp4725
a(lp4726
a(lp4727
a(lp4728
a(lp4729
a(lp4730
a(lp4731
a(lp4732
a(lp4733
a(lp4734
a(lp4735
a(lp4736
a(lp4737
a(lp4738
a(lp4739
a(lp4740
a(lp4741
a(lp4742
a(lp4743
a(lp4744
a(lp4745
a(lp4746
a(lp4747
a(lp4748
a(lp4749
a(lp4750
a(lp4751
a(lp4752
a(lp4753
a(lp4754
a(lp4755
a(lp4756
F84.474871542283836
aF-0.077532824604986672
aF3.1252566756734268
aF5.4816243988398128
aF5.3135941868731607
aF10.42666326611652
aF1.9390109073924577
aF-1.8893834052846614
aF91.771556576247804
aF11.303605518264703
aa(lp4757
a(lp4758
a(lp4759
a(lp4760
a(lp4761
a(lp4762
a(lp4763
a(lp4764
a(lp4765
a(lp4766
a(lp4767
a(lp4768
a(lp4769
a(lp4770
a(lp4771
a(lp4772
a(lp4773
a(lp4774
a(lp4775
a(lp4776
a(lp4777
a(lp4778
a(lp4779
a(lp4780
a(lp4781
a(lp4782
a(lp4783
a(lp4784
a(lp4785
a(lp4786
a(lp4787
a(lp4788
a(lp4789
a(lp4790
a(lp4791
a(lp4792
a(lp4793
a(lp4794
a(lp4795
a(lp4796
a(lp4797
a(lp4798
a(lp4799
a(lp4800
a(lp4801
a(lp4802
a(lp4803
a(lp4804
a(lp4805
a(lp4806
a(lp4807
a(lp4808
a(lp4809
a(lp4810
a(lp4811
a(lp4812
a(lp4813
a(lp4814
a(lp4815
a(lp4816
a(lp4817
a(lp4818
a(lp4819
a(lp4820
a(lp4821
a(lp4822
a(lp4823
a(lp4824
a(lp4825
a(lp4826
F181.19795441862152
aF-0.94449639220783865
aF4.8642021965861204
aF338.10989812366188
aF-53.374453301557878
aF-105.16500843493759
aF-10.301416963898191
aF-0.83897333524873829
aF276.78735214919925
aF40.277173951608347
aa(lp4827
a(lp4828
a(lp4829
a(lp4830
a(lp4831
a(lp4832
a(lp4833
a(lp4834
a(lp4835
a(lp4836
a(lp4837
a(lp4838
a(lp4839
a(lp4840
a(lp4841
a(lp4842
a(lp4843
a(lp4844
a(lp4845
a(lp4846
a(lp4847
a(lp4848
a(lp4849
a(lp4850
a(lp4851
a(lp4852
a(lp4853
a(lp4854
a(lp4855
a(lp4856
a(lp4857
a(lp4858
F-76.661341807948702
aF0.13004326504528763
aF-2.9658409061994462
aF129.89555822073839
aF-38.621915088299374
aF98.992904806749493
aF-2.7173935990276732
aF0.025092550259842028
aF21.858390386597648
aF0.59590155032651637
aa(lp4859
a(lp4860
a(lp4861
a(lp4862
a(lp4863
a(lp4864
a(lp4865
a(lp4866
a(lp4867
a(lp4868
a(lp4869
a(lp4870
a(lp4871
a(lp4872
a(lp4873
a(lp4874
a(lp4875
a(lp4876
a(lp4877
a(lp4878
a(lp4879
a(lp4880
a(lp4881
a(lp4882
a(lp4883
a(lp4884
a(lp4885
a(lp4886
a(lp4887
a(lp4888
a(lp4889
a(lp4890
a(lp4891
a(lp4892
a(lp4893
a(lp4894
a(lp4895
a(lp4896
a(lp4897
a(lp4898
a(lp4899
a(lp4900
a(lp4901
a(lp4902
a(lp4903
a(lp4904
a(lp4905
a(lp4906
F205.19136252339365
aF-0.59629616799838914
aF4.5248240265749473
aF-20.482516216446811
aF6.5007920380111273
aF-3.1158409630194228
aF1.3348405047963752
aF-0.34865701437070129
aF122.65839997027683
aF14.322596975091528
aa(lp4907
a(lp4908
a(lp4909
a(lp4910
a(lp4911
a(lp4912
a(lp4913
a(lp4914
a(lp4915
a(lp4916
a(lp4917
a(lp4918
a(lp4919
a(lp4920
a(lp4921
a(lp4922
a(lp4923
a(lp4924
a(lp4925
a(lp4926
a(lp4927
a(lp4928
a(lp4929
a(lp4930
a(lp4931
a(lp4932
a(lp4933
a(lp4934
a(lp4935
a(lp4936
a(lp4937
a(lp4938
a(lp4939
a(lp4940
a(lp4941
a(lp4942
a(lp4943
a(lp4944
a(lp4945
F722.49329292617404
aF-3.198019271621888
aF156.44508550849423
aF787.16761251484968
aF-91.999918083729426
aF213.54747659074746
aF-143.02173667601892
aF8.4183071180632396
aF286.70424399024341
aF53.877391081869064
aa(lp4946
a(lp4947
F469.9253651097024
aF-6.427899279515259
aF188.98084590546205
aF1374.0269679374251
aF-289.08274884997809
aF97.786488595374976
aF245.93750822532456
aF25.725140062604623
aF338.75224119128688
aF45.201272769190837
aa(lp4948
a(lp4949
a(lp4950
a(lp4951
a(lp4952
a(lp4953
a(lp4954
a(lp4955
a(lp4956
a(lp4957
a(lp4958
a(lp4959
a(lp4960
a(lp4961
a(lp4962
a(lp4963
F521.08053409938293
aF-4.1196472011506557
aF16.808942859825038
aF63.992519017119776
aF-98.638139434115146
aF-9.9486641147450428
aF56.689401617404656
aF27.53882881734171
aF81.356350278838363
aF15.457487734238384
aa(lp4964
a(lp4965
a(lp4966
a(lp4967
a(lp4968
a(lp4969
a(lp4970
F693.13575892238077
aF-1.7751247582964425
aF5.0192184630759584
aF839.42787512114592
aF-143.5665438975775
aF214.71178115461953
aF77.555203858992172
aF22.917801345556654
aF120.52811371177086
aF-10.905409908446018
aa(lp4971
a(lp4972
a(lp4973
a(lp4974
a(lp4975
a(lp4976
a(lp4977
a(lp4978
a(lp4979
a(lp4980
a(lp4981
a(lp4982
a(lp4983
a(lp4984
a(lp4985
a(lp4986
F203.60949903874825
aF-3.7432295485473333
aF513.37152342512127
aF1920.3016542235218
aF-214.10631525498047
aF-235.00612389426578
aF-10.017740592616065
aF27.24603209713905
aF58.815614956131412
aF9.4325624644397976
aa(lp4987
a(lp4988
a(lp4989
a(lp4990
a(lp4991
a(lp4992
a(lp4993
a(lp4994
a(lp4995
a(lp4996
a(lp4997
a(lp4998
a(lp4999
a(lp5000
a(lp5001
a(lp5002
a(lp5003
a(lp5004
a(lp5005
a(lp5006
a(lp5007
a(lp5008
a(lp5009
F-206.73069940357891
aF-2.3619193711965636
aF-7.933380175018101
aF227.60785043374199
aF-134.80194951398516
aF71.20933958049136
aF102.313110517116
aF-4.9695699999574572
aF-77.23669597226035
aF-9.2366491344364476
aa(lp5010
a(lp5011
F1203.8636761246835
aF-2.1780813597160886
aF374.64687494548343
aF1523.2151049815457
aF-286.73984289184773
aF-354.80879461147197
aF-333.23062638146439
aF22.082632256115176
aF69.745250641517487
aF-16.248602463520001
aa(lp5012
a(lp5013
a(lp5014
a(lp5015
a(lp5016
a(lp5017
a(lp5018
F378.54767356293451
aF-4.3867458998647635
aF441.4001267605272
aF5739.5149895000941
aF-552.66149274757481
aF876.33913210538594
aF-834.14520872793219
aF-18.664476897356508
aF275.92184039804124
aF-65.939727278419014
aa(lp5019
a(lp5020
a(lp5021
a(lp5022
a(lp5023
a(lp5024
a(lp5025
F99.11107810012254
aF-4.1158514818562253
aF330.85651267583671
aF3100.892912755171
aF-441.88673911094156
aF476.96353107085088
aF329.96600936030518
aF-10.711630693549523
aF262.82340286343242
aF60.646449639989441
aa(lp5026
a(lp5027
a(lp5028
a(lp5029
a(lp5030
a(lp5031
a(lp5032
a(lp5033
a(lp5034
a(lp5035
a(lp5036
a(lp5037
a(lp5038
a(lp5039
a(lp5040
a(lp5041
a(lp5042
a(lp5043
a(lp5044
a(lp5045
a(lp5046
a(lp5047
a(lp5048
a(lp5049
a(lp5050
a(lp5051
a(lp5052
a(lp5053
a(lp5054
a(lp5055
a(lp5056
a(lp5057
a(lp5058
a(lp5059
a(lp5060
a(lp5061
a(lp5062
a(lp5063
a(lp5064
a(lp5065
a(lp5066
a(lp5067
a(lp5068
a(lp5069
a(lp5070
a(lp5071
a(lp5072
a(lp5073
a(lp5074
a(lp5075
a(lp5076
a(lp5077
a(lp5078
a(lp5079
a(lp5080
a(lp5081
a(lp5082
a(lp5083
a(lp5084
a(lp5085
a(lp5086
a(lp5087
a(lp5088
a(lp5089
a(lp5090
a(lp5091
a(lp5092
a(lp5093
a(lp5094
a(lp5095
a(lp5096
a(lp5097
a(lp5098
a(lp5099
a(lp5100
a(lp5101
a(lp5102
a(lp5103
a(lp5104
a(lp5105
a(lp5106
a(lp5107
a(lp5108
a(lp5109
a(lp5110
a(lp5111
a(lp5112
a(lp5113
a(lp5114
a(lp5115
a(lp5116
a(lp5117
a(lp5118
a(lp5119
a(lp5120
a(lp5121
F315.62533919782254
aF-0.13228529383013665
aF5.4649785141691609
aF-86.146002686859902
aF61.162966957795106
aF193.303769080444
aF-74.15889555772992
aF-28.263647067205966
aF148.14180957500866
aF17.569411880913322
aa(lp5122
a(lp5123
a(lp5124
a(lp5125
a(lp5126
a(lp5127
a(lp5128
a(lp5129
a(lp5130
a(lp5131
a(lp5132
a(lp5133
a(lp5134
a(lp5135
a(lp5136
a(lp5137
a(lp5138
a(lp5139
a(lp5140
a(lp5141
a(lp5142
a(lp5143
a(lp5144
a(lp5145
a(lp5146
a(lp5147
a(lp5148
a(lp5149
a(lp5150
a(lp5151
a(lp5152
a(lp5153
a(lp5154
a(lp5155
a(lp5156
a(lp5157
a(lp5158
a(lp5159
a(lp5160
a(lp5161
a(lp5162
a(lp5163
a(lp5164
a(lp5165
a(lp5166
a(lp5167
a(lp5168
a(lp5169
a(lp5170
a(lp5171
a(lp5172
a(lp5173
a(lp5174
a(lp5175
a(lp5176
a(lp5177
a(lp5178
a(lp5179
a(lp5180
a(lp5181
a(lp5182
a(lp5183
a(lp5184
a(lp5185
a(lp5186
a(lp5187
a(lp5188
a(lp5189
a(lp5190
a(lp5191
F-29.130685241796073
aF0.27024125159869072
aF-2.3914294544624681
aF-53.374557573704351
aF29.63807883560321
aF43.334424049135123
aF-3.3259270892926907
aF0.87699145723263427
aF-93.501403775064773
aF-15.883073878342202
aa(lp5192
a(lp5193
a(lp5194
a(lp5195
a(lp5196
a(lp5197
a(lp5198
a(lp5199
a(lp5200
a(lp5201
a(lp5202
a(lp5203
a(lp5204
a(lp5205
a(lp5206
a(lp5207
a(lp5208
a(lp5209
a(lp5210
a(lp5211
a(lp5212
a(lp5213
a(lp5214
a(lp5215
a(lp5216
a(lp5217
a(lp5218
a(lp5219
a(lp5220
a(lp5221
a(lp5222
a(lp5223
F-92.323546851957872
aF0.14898962064080479
aF-4.8763427074050014
aF-38.618500930454047
aF8.4688617008055189
aF-46.458145241956572
aF-26.665115449020504
aF1.1354137186003754
aF-84.488925899961487
aF-8.9914346190766992
aa(lp5224
a(lp5225
a(lp5226
a(lp5227
a(lp5228
a(lp5229
a(lp5230
a(lp5231
a(lp5232
a(lp5233
a(lp5234
a(lp5235
a(lp5236
a(lp5237
a(lp5238
a(lp5239
a(lp5240
a(lp5241
a(lp5242
a(lp5243
a(lp5244
a(lp5245
a(lp5246
a(lp5247
a(lp5248
a(lp5249
a(lp5250
a(lp5251
a(lp5252
a(lp5253
a(lp5254
a(lp5255
a(lp5256
a(lp5257
a(lp5258
a(lp5259
a(lp5260
a(lp5261
a(lp5262
a(lp5263
a(lp5264
a(lp5265
a(lp5266
a(lp5267
a(lp5268
a(lp5269
a(lp5270
a(lp5271
F-69.153707160651834
aF0.26567259503451623
aF-2.3539177718134852
aF6.4833770352379361
aF2.3372470181470817
aF1.163736040865615
aF-1.4148614724263098
aF0.081055429035359339
aF-79.826711996133781
aF-9.7929518716455277
aa(lp5272
a(lp5273
a(lp5274
a(lp5275
a(lp5276
a(lp5277
a(lp5278
a(lp5279
a(lp5280
a(lp5281
a(lp5282
a(lp5283
a(lp5284
a(lp5285
a(lp5286
a(lp5287
a(lp5288
a(lp5289
a(lp5290
a(lp5291
a(lp5292
a(lp5293
a(lp5294
a(lp5295
a(lp5296
a(lp5297
a(lp5298
a(lp5299
a(lp5300
a(lp5301
a(lp5302
a(lp5303
a(lp5304
a(lp5305
a(lp5306
a(lp5307
a(lp5308
a(lp5309
a(lp5310
F53.712690117890816
aF1.2631240053906367
aF-38.714180661258979
aF-92.067415735641589
aF46.093211381048604
aF-53.802270372216299
aF-45.847665575138308
aF-1.1308539882293189
aF-115.20019178590246
aF-21.574514974531667
aa(lp5311
a(lp5312
F80.046814332490612
aF2.3884553002062603
aF-79.161740984545759
aF-289.04710163146774
aF97.653719421941787
aF-101.75943145895872
aF-155.50909893136122
aF-7.2728980171632429
aF-154.02378181761378
aF-12.813420369184314
aa(lp5313
a(lp5314
a(lp5315
a(lp5316
a(lp5317
a(lp5318
a(lp5319
a(lp5320
a(lp5321
a(lp5322
a(lp5323
a(lp5324
a(lp5325
a(lp5326
a(lp5327
a(lp5328
F-52.565026464890252
aF1.0303153885615757
aF-8.4549299117497867
aF-98.791815617005341
aF35.880949411648544
aF3.1997359428714844
aF-72.455321742381784
aF-6.5288020323350793
aF-71.193939277236495
aF-12.35359690099358
aa(lp5329
a(lp5330
a(lp5331
a(lp5332
a(lp5333
a(lp5334
a(lp5335
F-47.113784873431541
aF0.87322220565511088
aF-46.29278720358343
aF-143.43312084719173
aF82.536752366024757
aF-54.112809522166572
aF-105.80665783521681
aF-8.4862973537269681
aF-70.591396372776671
aF-6.4196973070806962
aa(lp5336
a(lp5337
a(lp5338
a(lp5339
a(lp5340
a(lp5341
a(lp5342
a(lp5343
a(lp5344
a(lp5345
a(lp5346
a(lp5347
a(lp5348
a(lp5349
a(lp5350
a(lp5351
F24.316571867188941
aF0.68688752463685887
aF-50.765469872260383
aF-214.03066270408999
aF75.261437260110142
aF33.755521755551854
aF-78.781143919570695
aF-4.0288165692459188
aF-34.712709506834472
aF-4.1071336553955007
aa(lp5352
a(lp5353
a(lp5354
a(lp5355
a(lp5356
a(lp5357
a(lp5358
a(lp5359
a(lp5360
a(lp5361
a(lp5362
a(lp5363
a(lp5364
a(lp5365
a(lp5366
a(lp5367
a(lp5368
a(lp5369
a(lp5370
a(lp5371
a(lp5372
a(lp5373
a(lp5374
F94.894958380109529
aF3.4636414625310863
aF-58.047417184070582
aF-134.85645240507438
aF59.483346603883547
aF91.694958825883077
aF-256.49437560559818
aF5.3597084104239912
aF-40.807758239225222
aF-3.0775204606925399
aa(lp5375
a(lp5376
F-129.72071772310301
aF0.37415617271108204
aF-145.78646414520335
aF-287.07575339126379
aF95.627689233879209
aF50.002290663542226
aF-42.87222061805096
aF-3.0109326587535179
aF-36.809369419188442
aF-2.4719792435234922
aa(lp5377
a(lp5378
a(lp5379
a(lp5380
a(lp5381
a(lp5382
a(lp5383
F134.11934460805242
aF0.6645670680427429
aF-77.031184275710984
aF-551.43762125453577
aF149.50178979233897
aF-46.987686630473036
aF-34.102026091886728
aF6.6363170958538831
aF-48.010081599159093
aF6.182766298934439
aa(lp5384
a(lp5385
a(lp5386
a(lp5387
a(lp5388
a(lp5389
a(lp5390
F55.636715856621777
aF1.1067527339037042
aF-42.173102343667779
aF-442.10386249687872
aF138.05795795462927
aF-124.02128319877193
aF-140.1833078062964
aF6.78821479027647
aF-70.395764950603734
aF-19.750170565657754
aa(lp5391
a(lp5392
a(lp5393
a(lp5394
a(lp5395
a(lp5396
a(lp5397
a(lp5398
a(lp5399
a(lp5400
a(lp5401
a(lp5402
a(lp5403
a(lp5404
a(lp5405
a(lp5406
a(lp5407
a(lp5408
a(lp5409
a(lp5410
a(lp5411
a(lp5412
a(lp5413
a(lp5414
a(lp5415
a(lp5416
a(lp5417
a(lp5418
a(lp5419
a(lp5420
a(lp5421
a(lp5422
a(lp5423
a(lp5424
a(lp5425
a(lp5426
a(lp5427
a(lp5428
a(lp5429
a(lp5430
a(lp5431
a(lp5432
a(lp5433
a(lp5434
a(lp5435
a(lp5436
a(lp5437
a(lp5438
a(lp5439
a(lp5440
a(lp5441
a(lp5442
a(lp5443
a(lp5444
a(lp5445
a(lp5446
a(lp5447
a(lp5448
a(lp5449
a(lp5450
a(lp5451
a(lp5452
a(lp5453
a(lp5454
a(lp5455
a(lp5456
a(lp5457
a(lp5458
a(lp5459
a(lp5460
a(lp5461
a(lp5462
a(lp5463
a(lp5464
a(lp5465
a(lp5466
a(lp5467
a(lp5468
a(lp5469
a(lp5470
a(lp5471
a(lp5472
a(lp5473
a(lp5474
a(lp5475
a(lp5476
a(lp5477
a(lp5478
a(lp5479
a(lp5480
a(lp5481
a(lp5482
a(lp5483
a(lp5484
a(lp5485
a(lp5486
F667.66805986162581
aF-0.13181953306684591
aF5.2940944073043283
aF61.174730348056983
aF40.140316670544962
aF54.510803693119669
aF7.3203157313628253
aF4.1098182634868863
aF224.30894119906952
aF20.937348566008041
aa(lp5487
a(lp5488
a(lp5489
a(lp5490
a(lp5491
a(lp5492
a(lp5493
a(lp5494
a(lp5495
a(lp5496
a(lp5497
a(lp5498
a(lp5499
a(lp5500
a(lp5501
a(lp5502
a(lp5503
a(lp5504
a(lp5505
a(lp5506
a(lp5507
a(lp5508
a(lp5509
a(lp5510
a(lp5511
a(lp5512
a(lp5513
a(lp5514
a(lp5515
a(lp5516
a(lp5517
a(lp5518
a(lp5519
a(lp5520
a(lp5521
a(lp5522
a(lp5523
a(lp5524
a(lp5525
a(lp5526
a(lp5527
a(lp5528
a(lp5529
a(lp5530
a(lp5531
a(lp5532
a(lp5533
a(lp5534
a(lp5535
a(lp5536
a(lp5537
a(lp5538
a(lp5539
a(lp5540
a(lp5541
a(lp5542
a(lp5543
a(lp5544
a(lp5545
a(lp5546
a(lp5547
a(lp5548
a(lp5549
a(lp5550
a(lp5551
a(lp5552
a(lp5553
a(lp5554
a(lp5555
a(lp5556
F-844.90435199313652
aF2.7663361379381968
aF-75.829735379784324
aF-105.12358912251329
aF43.336877553201703
aF-107.64404834162633
aF32.795045257216771
aF8.4238621411714121
aF-622.35414901579134
aF-79.672491182236627
aa(lp5557
a(lp5558
a(lp5559
a(lp5560
a(lp5561
a(lp5562
a(lp5563
a(lp5564
a(lp5565
a(lp5566
a(lp5567
a(lp5568
a(lp5569
a(lp5570
a(lp5571
a(lp5572
a(lp5573
a(lp5574
a(lp5575
a(lp5576
a(lp5577
a(lp5578
a(lp5579
a(lp5580
a(lp5581
a(lp5582
a(lp5583
a(lp5584
a(lp5585
a(lp5586
a(lp5587
a(lp5588
F-38.415880965203542
aF-1.9035663711974848
aF53.787818643513674
aF98.987134578010227
aF-46.421746091596106
aF-187.86177093943479
aF28.341667501763368
aF-6.0971856896685495
aF175.93358769829592
aF20.716311155410949
aa(lp5589
a(lp5590
a(lp5591
a(lp5592
a(lp5593
a(lp5594
a(lp5595
a(lp5596
a(lp5597
a(lp5598
a(lp5599
a(lp5600
a(lp5601
a(lp5602
a(lp5603
a(lp5604
a(lp5605
a(lp5606
a(lp5607
a(lp5608
a(lp5609
a(lp5610
a(lp5611
a(lp5612
a(lp5613
a(lp5614
a(lp5615
a(lp5616
a(lp5617
a(lp5618
a(lp5619
a(lp5620
a(lp5621
a(lp5622
a(lp5623
a(lp5624
a(lp5625
a(lp5626
a(lp5627
a(lp5628
a(lp5629
a(lp5630
a(lp5631
a(lp5632
a(lp5633
a(lp5634
a(lp5635
a(lp5636
F-381.70772951318099
aF0.93421759217449107
aF19.188221545007877
aF-3.2040833097823906
aF1.1901102769940053
aF54.442550645461552
aF13.202727888739219
aF-0.78034290140749363
aF-195.00207599776331
aF-23.737680354685153
aa(lp5637
a(lp5638
a(lp5639
a(lp5640
a(lp5641
a(lp5642
a(lp5643
a(lp5644
a(lp5645
a(lp5646
a(lp5647
a(lp5648
a(lp5649
a(lp5650
a(lp5651
a(lp5652
a(lp5653
a(lp5654
a(lp5655
a(lp5656
a(lp5657
a(lp5658
a(lp5659
a(lp5660
a(lp5661
a(lp5662
a(lp5663
a(lp5664
a(lp5665
a(lp5666
a(lp5667
a(lp5668
a(lp5669
a(lp5670
a(lp5671
a(lp5672
a(lp5673
a(lp5674
a(lp5675
F226.47263051567279
aF-2.1568812513805824
aF68.219156545978876
aF213.63058486656428
aF-53.795333343487073
aF518.32401020135421
aF-23.249223701782284
aF3.540303339377715
aF144.62622281996573
aF18.802098011860835
aa(lp5676
a(lp5677
F-277.45882356100537
aF-0.22362094398431509
aF226.08715077865327
aF97.862979586693655
aF-101.77454825566201
aF784.18123159451625
aF397.03710186245189
aF6.4105325492391785
aF58.884853260110503
aF-22.919054387671167
aa(lp5678
a(lp5679
a(lp5680
a(lp5681
a(lp5682
a(lp5683
a(lp5684
a(lp5685
a(lp5686
a(lp5687
a(lp5688
a(lp5689
a(lp5690
a(lp5691
a(lp5692
a(lp5693
F8.0343856012632386
aF0.97365955298300833
aF9.6668554050438615
aF-10.021297214279912
aF3.195809838985042
aF386.80166092319723
aF242.52456718443227
aF-11.166649471761048
aF-53.074563055588442
aF-0.75173218760937743
aa(lp5694
a(lp5695
a(lp5696
a(lp5697
a(lp5698
a(lp5699
a(lp5700
F162.23146594995796
aF-0.68328951385865366
aF15.492295091235064
aF214.69265085727329
aF-54.129547422121504
aF185.51969915847621
aF-8.0214405784317933
aF7.1610230634178151
aF55.502983897781633
aF-14.030356609850969
aa(lp5701
a(lp5702
a(lp5703
a(lp5704
a(lp5705
a(lp5706
a(lp5707
a(lp5708
a(lp5709
a(lp5710
a(lp5711
a(lp5712
a(lp5713
a(lp5714
a(lp5715
a(lp5716
F-56.399589354327873
aF0.33084361916735361
aF-51.27152400419277
aF-234.92642213795989
aF33.762169504569783
aF229.47350846180825
aF0.27956890136238144
aF-3.5590434599441778
aF0.9477732376694803
aF3.5845005186274648
aa(lp5717
a(lp5718
a(lp5719
a(lp5720
a(lp5721
a(lp5722
a(lp5723
a(lp5724
a(lp5725
a(lp5726
a(lp5727
a(lp5728
a(lp5729
a(lp5730
a(lp5731
a(lp5732
a(lp5733
a(lp5734
a(lp5735
a(lp5736
a(lp5737
a(lp5738
a(lp5739
F1240.0251456767819
aF-1.6996736462715489
aF91.543907387858781
aF71.166718385029526
aF91.717245709332929
aF-1653.3939650287266
aF-73.200276062834746
aF8.1508105154171062
aF-137.88294523919831
aF-22.191367321511279
aa(lp5740
a(lp5741
F-186.28012981025677
aF0.6512145489523391
aF125.72553913514639
aF-355.22905399432148
aF50.047052724266905
aF62.95697332348027
aF57.454072432960857
aF-9.7331298576364134
aF36.531769964653904
aF12.78915142677306
aa(lp5742
a(lp5743
a(lp5744
a(lp5745
a(lp5746
a(lp5747
a(lp5748
F283.53663807934026
aF-0.74341954814372002
aF32.909843383777115
aF877.05789084679964
aF-47.30712603873144
aF-394.89919885227209
aF-392.32003032907414
aF-5.7725593194390967
aF31.947430301215718
aF-42.898557239823276
aa(lp5749
a(lp5750
a(lp5751
a(lp5752
a(lp5753
a(lp5754
a(lp5755
F-113.44032859739173
aF-1.3548374866445556
aF61.17083533041523
aF476.52469739034586
aF-123.93656696474409
aF296.97720567156694
aF68.130118435760778
aF-8.6567222723488157
aF65.445374630712649
aF13.871487070105104
aa(lp5756
a(lp5757
a(lp5758
a(lp5759
a(lp5760
a(lp5761
a(lp5762
a(lp5763
a(lp5764
a(lp5765
a(lp5766
a(lp5767
a(lp5768
a(lp5769
a(lp5770
a(lp5771
a(lp5772
a(lp5773
a(lp5774
a(lp5775
a(lp5776
a(lp5777
a(lp5778
a(lp5779
a(lp5780
a(lp5781
a(lp5782
a(lp5783
a(lp5784
a(lp5785
a(lp5786
a(lp5787
a(lp5788
a(lp5789
a(lp5790
a(lp5791
a(lp5792
a(lp5793
a(lp5794
a(lp5795
a(lp5796
a(lp5797
a(lp5798
a(lp5799
a(lp5800
a(lp5801
a(lp5802
a(lp5803
a(lp5804
a(lp5805
a(lp5806
a(lp5807
a(lp5808
a(lp5809
a(lp5810
a(lp5811
a(lp5812
a(lp5813
a(lp5814
a(lp5815
a(lp5816
a(lp5817
a(lp5818
a(lp5819
a(lp5820
a(lp5821
a(lp5822
a(lp5823
a(lp5824
a(lp5825
a(lp5826
a(lp5827
a(lp5828
a(lp5829
a(lp5830
a(lp5831
a(lp5832
a(lp5833
a(lp5834
a(lp5835
a(lp5836
a(lp5837
a(lp5838
a(lp5839
a(lp5840
a(lp5841
a(lp5842
a(lp5843
a(lp5844
a(lp5845
a(lp5846
a(lp5847
a(lp5848
a(lp5849
a(lp5850
a(lp5851
F1135.6963042885582
aF-0.49172328431268397
aF10.388484383838659
aF193.36343370923714
aF54.555622597263209
aF-201.76903774427046
aF-20.816762713593562
aF1.8285490455127729
aF454.78288512867948
aF57.1226912882139
aa(lp5852
a(lp5853
a(lp5854
a(lp5855
a(lp5856
a(lp5857
a(lp5858
a(lp5859
a(lp5860
a(lp5861
a(lp5862
a(lp5863
a(lp5864
a(lp5865
a(lp5866
a(lp5867
a(lp5868
a(lp5869
a(lp5870
a(lp5871
a(lp5872
a(lp5873
a(lp5874
a(lp5875
a(lp5876
a(lp5877
a(lp5878
a(lp5879
a(lp5880
a(lp5881
a(lp5882
a(lp5883
a(lp5884
a(lp5885
a(lp5886
a(lp5887
a(lp5888
a(lp5889
a(lp5890
a(lp5891
a(lp5892
a(lp5893
a(lp5894
a(lp5895
a(lp5896
a(lp5897
a(lp5898
a(lp5899
a(lp5900
a(lp5901
a(lp5902
a(lp5903
a(lp5904
a(lp5905
a(lp5906
a(lp5907
a(lp5908
a(lp5909
a(lp5910
a(lp5911
a(lp5912
a(lp5913
a(lp5914
a(lp5915
a(lp5916
a(lp5917
a(lp5918
a(lp5919
a(lp5920
a(lp5921
F-125.04990536399418
aF0.10128937688591577
aF-13.11496973244175
aF-10.285232221463048
aF-3.3277819611043924
aF32.76636446614134
aF-30.199064049440949
aF-5.5294032463848453
aF-19.730462330613818
aF-2.6724506163589012
aa(lp5922
a(lp5923
a(lp5924
a(lp5925
a(lp5926
a(lp5927
a(lp5928
a(lp5929
a(lp5930
a(lp5931
a(lp5932
a(lp5933
a(lp5934
a(lp5935
a(lp5936
a(lp5937
a(lp5938
a(lp5939
a(lp5940
a(lp5941
a(lp5942
a(lp5943
a(lp5944
a(lp5945
a(lp5946
a(lp5947
a(lp5948
a(lp5949
a(lp5950
a(lp5951
a(lp5952
a(lp5953
F656.20341445082886
aF-1.3496375572685793
aF57.701368660900698
aF-2.7470647978589113
aF-26.546105402758258
aF28.312594935187008
aF183.75011592297597
aF-4.2372647612864967
aF389.36546644663395
aF46.629310190837714
aa(lp5954
a(lp5955
a(lp5956
a(lp5957
a(lp5958
a(lp5959
a(lp5960
a(lp5961
a(lp5962
a(lp5963
a(lp5964
a(lp5965
a(lp5966
a(lp5967
a(lp5968
a(lp5969
a(lp5970
a(lp5971
a(lp5972
a(lp5973
a(lp5974
a(lp5975
a(lp5976
a(lp5977
a(lp5978
a(lp5979
a(lp5980
a(lp5981
a(lp5982
a(lp5983
a(lp5984
a(lp5985
a(lp5986
a(lp5987
a(lp5988
a(lp5989
a(lp5990
a(lp5991
a(lp5992
a(lp5993
a(lp5994
a(lp5995
a(lp5996
a(lp5997
a(lp5998
a(lp5999
a(lp6000
a(lp6001
F-326.90147993008623
aF0.51888706664726669
aF-12.891060663378084
aF1.303792274143234
aF-1.4071400933346467
aF13.191427328251848
aF11.404884858734476
aF-1.1047760928306616
aF-100.48189871270097
aF-7.1993867756248164
aa(lp6002
a(lp6003
a(lp6004
a(lp6005
a(lp6006
a(lp6007
a(lp6008
a(lp6009
a(lp6010
a(lp6011
a(lp6012
a(lp6013
a(lp6014
a(lp6015
a(lp6016
a(lp6017
a(lp6018
a(lp6019
a(lp6020
a(lp6021
a(lp6022
a(lp6023
a(lp6024
a(lp6025
a(lp6026
a(lp6027
a(lp6028
a(lp6029
a(lp6030
a(lp6031
a(lp6032
a(lp6033
a(lp6034
a(lp6035
a(lp6036
a(lp6037
a(lp6038
a(lp6039
a(lp6040
F-379.75717006588638
aF0.05205524900020464
aF-13.411241361893644
aF-143.05572300088443
aF-45.851110819228325
aF-23.261127601870157
aF95.453431470104988
aF-1.876370347986267
aF32.6679323592316
aF-5.8452460649505156
aa(lp6041
a(lp6042
F-203.56102936602838
aF-3.166852025060507
aF62.023798363952665
aF246.02819337360415
aF-155.56155119611503
aF397.00082652416313
aF233.137248528692
aF4.9507917765367893
aF283.0926263186484
aF42.479581452425919
aa(lp6043
a(lp6044
a(lp6045
a(lp6046
a(lp6047
a(lp6048
a(lp6049
a(lp6050
a(lp6051
a(lp6052
a(lp6053
a(lp6054
a(lp6055
a(lp6056
a(lp6057
a(lp6058
F67.470327280716447
aF-0.6277915076680074
aF7.7857947644588421
aF56.576737961222534
aF-72.366525216693844
aF242.56752340079402
aF386.06477232860925
aF2.6921284757008834
aF30.185806565441453
aF13.866016956853855
aa(lp6059
a(lp6060
a(lp6061
a(lp6062
a(lp6063
a(lp6064
a(lp6065
F27.119986611978675
aF-1.117424730523453
aF82.137598766962583
aF77.667283804316867
aF-105.88838854630467
aF-7.9445872103178772
aF163.69825530659909
aF10.813674222731606
aF91.09185761246863
aF11.359317397818813
aa(lp6066
a(lp6067
a(lp6068
a(lp6069
a(lp6070
a(lp6071
a(lp6072
a(lp6073
a(lp6074
a(lp6075
a(lp6076
a(lp6077
a(lp6078
a(lp6079
a(lp6080
a(lp6081
F-56.494473454904437
aF-0.84093585428490769
aF-1.3653540520408569
aF-10.068408684560382
aF-78.767607902818781
aF0.28045796796050126
aF261.69650801932676
aF3.3554034217786466
aF66.880160787263776
aF10.179981657643111
aa(lp6082
a(lp6083
a(lp6084
a(lp6085
a(lp6086
a(lp6087
a(lp6088
a(lp6089
a(lp6090
a(lp6091
a(lp6092
a(lp6093
a(lp6094
a(lp6095
a(lp6096
a(lp6097
a(lp6098
a(lp6099
a(lp6100
a(lp6101
a(lp6102
a(lp6103
a(lp6104
F118.6406791475747
aF-2.7721839046535024
aF167.73183375562439
aF102.28701441405974
aF-256.50282111655542
aF-73.131842270868219
aF291.21849962621127
aF-10.742635936367151
aF-8.0339731312051299
aF-7.4495716262390488
aa(lp6105
a(lp6106
F-410.82833881489478
aF0.25112001367233461
aF7.5941613886243431
aF-333.43220948722774
aF-42.780067843750658
aF57.550003162987196
aF250.33941817298455
aF-6.9648461220594982
aF46.398187691920612
aF14.774588663613031
aa(lp6107
a(lp6108
a(lp6109
a(lp6110
a(lp6111
a(lp6112
a(lp6113
F-114.84026956054549
aF0.38819081282781553
aF-103.53156838505129
aF-833.75878965341599
aF-34.056997932907507
aF-392.19551375424544
aF306.52748819193221
aF-3.9577749078034685
aF-19.828521402587285
aF25.766150102413121
aa(lp6114
a(lp6115
a(lp6116
a(lp6117
a(lp6118
a(lp6119
a(lp6120
F-245.6491159819052
aF-1.4252229618705314
aF58.043782757977169
aF329.54170308130415
aF-140.09494080369223
aF68.097649119636117
aF141.33378769543015
aF-14.767883271815663
aF104.27861241169012
aF22.481719241795872
aa(lp6121
a(lp6122
a(lp6123
a(lp6124
a(lp6125
a(lp6126
a(lp6127
a(lp6128
a(lp6129
a(lp6130
a(lp6131
a(lp6132
a(lp6133
a(lp6134
a(lp6135
a(lp6136
a(lp6137
a(lp6138
a(lp6139
a(lp6140
a(lp6141
a(lp6142
a(lp6143
a(lp6144
a(lp6145
a(lp6146
a(lp6147
a(lp6148
a(lp6149
a(lp6150
a(lp6151
a(lp6152
a(lp6153
a(lp6154
a(lp6155
a(lp6156
a(lp6157
a(lp6158
a(lp6159
a(lp6160
a(lp6161
a(lp6162
a(lp6163
a(lp6164
a(lp6165
a(lp6166
a(lp6167
a(lp6168
a(lp6169
a(lp6170
a(lp6171
a(lp6172
a(lp6173
a(lp6174
a(lp6175
a(lp6176
a(lp6177
a(lp6178
a(lp6179
a(lp6180
a(lp6181
a(lp6182
a(lp6183
a(lp6184
a(lp6185
a(lp6186
a(lp6187
a(lp6188
a(lp6189
a(lp6190
a(lp6191
a(lp6192
a(lp6193
a(lp6194
a(lp6195
a(lp6196
a(lp6197
a(lp6198
a(lp6199
a(lp6200
a(lp6201
a(lp6202
a(lp6203
a(lp6204
a(lp6205
a(lp6206
a(lp6207
a(lp6208
a(lp6209
a(lp6210
a(lp6211
a(lp6212
a(lp6213
a(lp6214
a(lp6215
a(lp6216
F-24.510228069374307
aF-0.060131011281328028
aF1.9442590648566238
aF-74.141538153327247
aF7.3482660845058945
aF-20.752350415875753
aF90.03144336716673
aF-16.45272433847822
aF45.950071303479945
aF6.3656352189411791
aa(lp6217
a(lp6218
a(lp6219
a(lp6220
a(lp6221
a(lp6222
a(lp6223
a(lp6224
a(lp6225
a(lp6226
a(lp6227
a(lp6228
a(lp6229
a(lp6230
a(lp6231
a(lp6232
a(lp6233
a(lp6234
a(lp6235
a(lp6236
a(lp6237
a(lp6238
a(lp6239
a(lp6240
a(lp6241
a(lp6242
a(lp6243
a(lp6244
a(lp6245
a(lp6246
a(lp6247
a(lp6248
a(lp6249
a(lp6250
a(lp6251
a(lp6252
a(lp6253
a(lp6254
a(lp6255
a(lp6256
a(lp6257
a(lp6258
a(lp6259
a(lp6260
a(lp6261
a(lp6262
a(lp6263
a(lp6264
a(lp6265
a(lp6266
a(lp6267
a(lp6268
a(lp6269
a(lp6270
a(lp6271
a(lp6272
a(lp6273
a(lp6274
a(lp6275
a(lp6276
a(lp6277
a(lp6278
a(lp6279
a(lp6280
a(lp6281
a(lp6282
a(lp6283
a(lp6284
a(lp6285
a(lp6286
F42.179170112177644
aF0.04975420075936654
aF-0.99348822502065559
aF-0.82177282756390468
aF0.86848106484183063
aF8.3719936316839494
aF-5.5279516075756874
aF0.55197713066945653
aF-20.392816635350641
aF-3.247873037182103
aa(lp6287
a(lp6288
a(lp6289
a(lp6290
a(lp6291
a(lp6292
a(lp6293
a(lp6294
a(lp6295
a(lp6296
a(lp6297
a(lp6298
a(lp6299
a(lp6300
a(lp6301
a(lp6302
a(lp6303
a(lp6304
a(lp6305
a(lp6306
a(lp6307
a(lp6308
a(lp6309
a(lp6310
a(lp6311
a(lp6312
a(lp6313
a(lp6314
a(lp6315
a(lp6316
a(lp6317
a(lp6318
F-18.197918993934081
aF0.056245097468377026
aF-2.9182392946580649
aF0.026534241470699271
aF1.1254564391549593
aF-6.0931257372942582
aF-4.2270265954158504
aF0.32460021337499256
aF-24.422618949415664
aF-3.0626662539390281
aa(lp6319
a(lp6320
a(lp6321
a(lp6322
a(lp6323
a(lp6324
a(lp6325
a(lp6326
a(lp6327
a(lp6328
a(lp6329
a(lp6330
a(lp6331
a(lp6332
a(lp6333
a(lp6334
a(lp6335
a(lp6336
a(lp6337
a(lp6338
a(lp6339
a(lp6340
a(lp6341
a(lp6342
a(lp6343
a(lp6344
a(lp6345
a(lp6346
a(lp6347
a(lp6348
a(lp6349
a(lp6350
a(lp6351
a(lp6352
a(lp6353
a(lp6354
a(lp6355
a(lp6356
a(lp6357
a(lp6358
a(lp6359
a(lp6360
a(lp6361
a(lp6362
a(lp6363
a(lp6364
a(lp6365
a(lp6366
F-2.8280224634302797
aF0.0073162920166680578
aF-0.11652660503180812
aF-0.34872660870099992
aF0.081083434411155508
aF-0.77956070487772422
aF-1.1083722550875308
aF-0.0080275730507395338
aF-2.3569046353477674
aF-0.34136619642133326
aa(lp6367
a(lp6368
a(lp6369
a(lp6370
a(lp6371
a(lp6372
a(lp6373
a(lp6374
a(lp6375
a(lp6376
a(lp6377
a(lp6378
a(lp6379
a(lp6380
a(lp6381
a(lp6382
a(lp6383
a(lp6384
a(lp6385
a(lp6386
a(lp6387
a(lp6388
a(lp6389
a(lp6390
a(lp6391
a(lp6392
a(lp6393
a(lp6394
a(lp6395
a(lp6396
a(lp6397
a(lp6398
a(lp6399
a(lp6400
a(lp6401
a(lp6402
a(lp6403
a(lp6404
a(lp6405
F14.333002096300618
aF-0.053039195258008931
aF2.8238672844516088
aF8.4061487770625831
aF-1.1270523625483975
aF3.5350798954780771
aF-1.8743433138901366
aF0.14440239004542832
aF5.1270551915116869
aF0.87256143421754473
aa(lp6406
a(lp6407
F6.893611548264289
aF-0.29253897082526237
aF9.6900556911805324
aF25.877733378365519
aF-7.3393355393136517
aF6.4061033810958179
aF5.0398050177591358
aF1.0979404052591235
aF14.104639411982589
aF2.2900326968056106
aa(lp6408
a(lp6409
a(lp6410
a(lp6411
a(lp6412
a(lp6413
a(lp6414
a(lp6415
a(lp6416
a(lp6417
a(lp6418
a(lp6419
a(lp6420
a(lp6421
a(lp6422
a(lp6423
F22.343333760943551
aF-0.14325038932838652
aF0.70524031059449044
aF27.569217309064697
aF-6.5292187656496026
aF-11.173245439977109
aF2.6976815448165326
aF0.98882599885996569
aF7.2318092847467597
aF1.764472301601927
aa(lp6424
a(lp6425
a(lp6426
a(lp6427
a(lp6428
a(lp6429
a(lp6430
F20.950220358528782
aF-0.10341545397807295
aF5.2324035992867834
aF23.008343119634844
aF-8.5155892337596129
aF7.1934118217598098
aF10.837754738091121
aF1.1185866677365652
aF9.4826691610094827
aF0.25090980404485208
aa(lp6431
a(lp6432
a(lp6433
a(lp6434
a(lp6435
a(lp6436
a(lp6437
a(lp6438
a(lp6439
a(lp6440
a(lp6441
a(lp6442
a(lp6443
a(lp6444
a(lp6445
a(lp6446
F2.80736242586066
aF-0.067627686783922059
aF7.439535781861295
aF27.206485503361577
aF-4.0069819018384578
aF-3.5658090147272503
aF3.3125699405722742
aF0.44224774953249835
aF2.1222153812061606
aF0.29638678178400824
aa(lp6447
a(lp6448
a(lp6449
a(lp6450
a(lp6451
a(lp6452
a(lp6453
a(lp6454
a(lp6455
a(lp6456
a(lp6457
a(lp6458
a(lp6459
a(lp6460
a(lp6461
a(lp6462
a(lp6463
a(lp6464
a(lp6465
a(lp6466
a(lp6467
a(lp6468
a(lp6469
F2.3019346540031904
aF0.14106714685269139
aF-5.7697450650540105
aF-5.0000457219034899
aF5.3590141046999662
aF8.1425143905189401
aF-10.726061344668025
aF0.41200201583713181
aF0.50863511180665455
aF0.24565067202608759
aa(lp6470
a(lp6471
F16.103656941268696
aF-0.034042274554835217
aF4.482360788093942
aF21.871853039812095
aF-2.9392340783473969
aF-9.678127738110831
aF-6.9933565938207209
aF0.32351599177360413
aF0.034047470398590463
aF-0.38360470355769394
aa(lp6472
a(lp6473
a(lp6474
a(lp6475
a(lp6476
a(lp6477
a(lp6478
F10.076351131260708
aF0.061218363711645907
aF-7.1703767368092031
aF-17.719085221301611
aF6.5113453295850832
aF-5.5917397823179726
aF-4.0252936983620202
aF0.71363328579820973
aF-6.3027828289818899
aF0.23201454091292817
aa(lp6479
a(lp6480
a(lp6481
a(lp6482
a(lp6483
a(lp6484
a(lp6485
F10.314177245618339
aF0.091324992013142037
aF-3.0670608275329414
aF-10.822461682380435
aF6.7974275097526515
aF-8.6697647283529022
aF-14.769587330931699
aF1.0910898851079764
aF-8.227658732096188
aF-1.7002579788538696
aa(lp6486
a(lp6487
a(lp6488
a(lp6489
a(lp6490
a(lp6491
a(lp6492
a(lp6493
a(lp6494
a(lp6495
a(lp6496
a(lp6497
a(lp6498
a(lp6499
a(lp6500
a(lp6501
a(lp6502
a(lp6503
a(lp6504
a(lp6505
a(lp6506
a(lp6507
a(lp6508
a(lp6509
a(lp6510
a(lp6511
a(lp6512
a(lp6513
a(lp6514
a(lp6515
a(lp6516
a(lp6517
a(lp6518
a(lp6519
a(lp6520
a(lp6521
a(lp6522
a(lp6523
a(lp6524
a(lp6525
a(lp6526
a(lp6527
a(lp6528
a(lp6529
a(lp6530
a(lp6531
a(lp6532
a(lp6533
a(lp6534
a(lp6535
a(lp6536
a(lp6537
a(lp6538
a(lp6539
a(lp6540
a(lp6541
a(lp6542
a(lp6543
a(lp6544
a(lp6545
a(lp6546
a(lp6547
a(lp6548
a(lp6549
a(lp6550
a(lp6551
a(lp6552
a(lp6553
a(lp6554
a(lp6555
a(lp6556
a(lp6557
a(lp6558
a(lp6559
a(lp6560
a(lp6561
a(lp6562
a(lp6563
a(lp6564
a(lp6565
a(lp6566
a(lp6567
a(lp6568
a(lp6569
a(lp6570
a(lp6571
a(lp6572
a(lp6573
a(lp6574
a(lp6575
a(lp6576
a(lp6577
a(lp6578
a(lp6579
a(lp6580
a(lp6581
F61.138481211031603
aF0.044088821482546336
aF-1.8803897994246199
aF-28.256636941392799
aF4.1075879586571773
aF1.851443531819541
aF-16.439665095902001
aF2.0914671772231941
aF-40.004475021504504
aF-5.6061574049692808
aa(lp6582
a(lp6583
a(lp6584
a(lp6585
a(lp6586
a(lp6587
a(lp6588
a(lp6589
a(lp6590
a(lp6591
a(lp6592
a(lp6593
a(lp6594
a(lp6595
a(lp6596
a(lp6597
a(lp6598
a(lp6599
a(lp6600
a(lp6601
a(lp6602
a(lp6603
a(lp6604
a(lp6605
a(lp6606
a(lp6607
a(lp6608
a(lp6609
a(lp6610
a(lp6611
a(lp6612
a(lp6613
a(lp6614
a(lp6615
a(lp6616
a(lp6617
a(lp6618
a(lp6619
a(lp6620
a(lp6621
a(lp6622
a(lp6623
a(lp6624
a(lp6625
a(lp6626
a(lp6627
a(lp6628
a(lp6629
a(lp6630
a(lp6631
a(lp6632
a(lp6633
a(lp6634
a(lp6635
a(lp6636
a(lp6637
a(lp6638
a(lp6639
a(lp6640
a(lp6641
a(lp6642
a(lp6643
a(lp6644
a(lp6645
a(lp6646
a(lp6647
a(lp6648
a(lp6649
a(lp6650
a(lp6651
F4452.1102211092511
aF-8.5610167843697127
aF68.899453253834508
aF276.67318818203057
aF-93.426069724955596
aF-622.29918285083841
aF-19.841820630972506
aF-20.595496152964188
aF2794.8751096573687
aF410.16054410647484
aa(lp6652
a(lp6653
a(lp6654
a(lp6655
a(lp6656
a(lp6657
a(lp6658
a(lp6659
a(lp6660
a(lp6661
a(lp6662
a(lp6663
a(lp6664
a(lp6665
a(lp6666
a(lp6667
a(lp6668
a(lp6669
a(lp6670
a(lp6671
a(lp6672
a(lp6673
a(lp6674
a(lp6675
a(lp6676
a(lp6677
a(lp6678
a(lp6679
a(lp6680
a(lp6681
a(lp6682
a(lp6683
F3843.3438589891011
aF-4.4783689645555569
aF237.99075279384851
aF21.708507347284467
aF-83.92384529543051
aF176.0175734943914
aF389.68129274508101
aF-24.521057184756501
aF2269.3235507631471
aF225.30202841153368
aa(lp6684
a(lp6685
a(lp6686
a(lp6687
a(lp6688
a(lp6689
a(lp6690
a(lp6691
a(lp6692
a(lp6693
a(lp6694
a(lp6695
a(lp6696
a(lp6697
a(lp6698
a(lp6699
a(lp6700
a(lp6701
a(lp6702
a(lp6703
a(lp6704
a(lp6705
a(lp6706
a(lp6707
a(lp6708
a(lp6709
a(lp6710
a(lp6711
a(lp6712
a(lp6713
a(lp6714
a(lp6715
a(lp6716
a(lp6717
a(lp6718
a(lp6719
a(lp6720
a(lp6721
a(lp6722
a(lp6723
a(lp6724
a(lp6725
a(lp6726
a(lp6727
a(lp6728
a(lp6729
a(lp6730
a(lp6731
F2733.9367491663324
aF-7.7673306009273801
aF157.87701812541854
aF123.23605034225693
aF-79.907049155281129
aF-194.4552991517412
aF-100.34111923573619
aF-2.3616848920937628
aF2051.8039121952825
aF253.87399631426888
aa(lp6732
a(lp6733
a(lp6734
a(lp6735
a(lp6736
a(lp6737
a(lp6738
a(lp6739
a(lp6740
a(lp6741
a(lp6742
a(lp6743
a(lp6744
a(lp6745
a(lp6746
a(lp6747
a(lp6748
a(lp6749
a(lp6750
a(lp6751
a(lp6752
a(lp6753
a(lp6754
a(lp6755
a(lp6756
a(lp6757
a(lp6758
a(lp6759
a(lp6760
a(lp6761
a(lp6762
a(lp6763
a(lp6764
a(lp6765
a(lp6766
a(lp6767
a(lp6768
a(lp6769
a(lp6770
F458.47135510257431
aF-3.6398986935637367
aF142.23391389123208
aF286.67327427456257
aF-115.14365638731761
aF144.54035692779144
aF32.705405317301484
aF5.1370633968872426
aF315.0794142925406
aF58.793796142708743
aa(lp6771
a(lp6772
F520.60913162677025
aF-5.3977458946974366
aF224.59523165707651
aF338.81858882978122
aF-154.08137983285997
aF58.832429772337491
aF283.05272223860811
aF13.968573853162525
aF304.81946566851548
aF44.719743641508103
aa(lp6773
a(lp6774
a(lp6775
a(lp6776
a(lp6777
a(lp6778
a(lp6779
a(lp6780
a(lp6781
a(lp6782
a(lp6783
a(lp6784
a(lp6785
a(lp6786
a(lp6787
a(lp6788
F-502.19001366258453
aF-0.70641732463627704
aF8.9663302560438751
aF81.195545931223023
aF-71.092549092099944
aF-53.061378935126413
aF30.167822728799365
aF7.2189408228950924
aF97.365641238411627
aF22.489857087748533
aa(lp6789
a(lp6790
a(lp6791
a(lp6792
a(lp6793
a(lp6794
a(lp6795
F6.7573420636790615
aF-0.83739539746829905
aF70.080128722338486
aF120.6088745320244
aF-70.658643558374479
aF55.559602429866572
aF91.095067489277426
aF9.4630481228819008
aF63.199517441603348
aF6.3193311916620587
aa(lp6796
a(lp6797
a(lp6798
a(lp6799
a(lp6800
a(lp6801
a(lp6802
a(lp6803
a(lp6804
a(lp6805
a(lp6806
a(lp6807
a(lp6808
a(lp6809
a(lp6810
a(lp6811
F-73.287168156355165
aF-0.33472478122575922
aF12.543095984085539
aF58.646461997824417
aF-34.678268967525128
aF0.95593435389673687
aF66.839915202621114
aF2.1357977608715828
aF21.750766876493799
aF4.67161926920312
aa(lp6812
a(lp6813
a(lp6814
a(lp6815
a(lp6816
a(lp6817
a(lp6818
a(lp6819
a(lp6820
a(lp6821
a(lp6822
a(lp6823
a(lp6824
a(lp6825
a(lp6826
a(lp6827
a(lp6828
a(lp6829
a(lp6830
a(lp6831
a(lp6832
a(lp6833
a(lp6834
F-123.33677155140776
aF-0.64985332670630669
aF25.013610382984552
aF-77.207167414883315
aF-40.826287062145639
aF-137.86011336947013
aF-7.9911281147815316
aF0.50633452985948679
aF-5.2522288740419754
aF5.0170115173386876
aa(lp6835
a(lp6836
F84.349670270711385
aF-0.14256356095643241
aF28.463064971617769
aF69.294342530668018
aF-36.636947164936373
aF36.687676985280859
aF46.359560812447853
aF0.050387782835059625
aF13.582105928833244
aF0.47389487889404336
aa(lp6837
a(lp6838
a(lp6839
a(lp6840
a(lp6841
a(lp6842
a(lp6843
F122.64577797793663
aF-0.49299266891011939
aF55.409533317174464
aF276.20072131639972
aF-48.162551991026703
aF31.917749865328915
aF-19.894631364536508
aF-6.402886398859664
aF43.847081698800139
aF-3.8341749331038955
aa(lp6844
a(lp6845
a(lp6846
a(lp6847
a(lp6848
a(lp6849
a(lp6850
F4.057317681827044
aF-0.80299855653720442
aF35.629951433691076
aF262.36658463574258
aF-70.292676568328716
aF65.396072734813515
aF104.21910481284158
aF-8.2159619552157892
aF54.4375799549357
aF11.94711494179046
aa(lp6851
a(lp6852
a(lp6853
a(lp6854
a(lp6855
a(lp6856
a(lp6857
a(lp6858
a(lp6859
a(lp6860
a(lp6861
a(lp6862
a(lp6863
a(lp6864
a(lp6865
a(lp6866
a(lp6867
a(lp6868
a(lp6869
a(lp6870
a(lp6871
a(lp6872
a(lp6873
a(lp6874
a(lp6875
a(lp6876
a(lp6877
a(lp6878
a(lp6879
a(lp6880
a(lp6881
a(lp6882
a(lp6883
a(lp6884
a(lp6885
a(lp6886
a(lp6887
a(lp6888
a(lp6889
a(lp6890
a(lp6891
a(lp6892
a(lp6893
a(lp6894
a(lp6895
a(lp6896
a(lp6897
a(lp6898
a(lp6899
a(lp6900
a(lp6901
a(lp6902
a(lp6903
a(lp6904
a(lp6905
a(lp6906
a(lp6907
a(lp6908
a(lp6909
a(lp6910
a(lp6911
a(lp6912
a(lp6913
a(lp6914
a(lp6915
a(lp6916
a(lp6917
a(lp6918
a(lp6919
a(lp6920
a(lp6921
a(lp6922
a(lp6923
a(lp6924
a(lp6925
a(lp6926
a(lp6927
a(lp6928
a(lp6929
a(lp6930
a(lp6931
a(lp6932
a(lp6933
a(lp6934
a(lp6935
a(lp6936
a(lp6937
a(lp6938
a(lp6939
a(lp6940
a(lp6941
a(lp6942
a(lp6943
a(lp6944
a(lp6945
a(lp6946
F5757.5672883558582
aF-2.2630558760283748
aF91.577538796627778
aF148.36864465905819
aF224.55009229815914
aF454.5207900719106
aF45.626632072526263
aF-40.116901800502092
aF3007.1562832745258
aF342.17015354442992
aa(lp6947
a(lp6948
a(lp6949
a(lp6950
a(lp6951
a(lp6952
a(lp6953
a(lp6954
a(lp6955
a(lp6956
a(lp6957
a(lp6958
a(lp6959
a(lp6960
a(lp6961
a(lp6962
a(lp6963
a(lp6964
a(lp6965
a(lp6966
a(lp6967
a(lp6968
a(lp6969
a(lp6970
a(lp6971
a(lp6972
a(lp6973
a(lp6974
a(lp6975
a(lp6976
a(lp6977
a(lp6978
a(lp6979
a(lp6980
a(lp6981
a(lp6982
a(lp6983
a(lp6984
a(lp6985
a(lp6986
a(lp6987
a(lp6988
a(lp6989
a(lp6990
a(lp6991
a(lp6992
a(lp6993
a(lp6994
a(lp6995
a(lp6996
a(lp6997
a(lp6998
a(lp6999
a(lp7000
a(lp7001
a(lp7002
a(lp7003
a(lp7004
a(lp7005
a(lp7006
a(lp7007
a(lp7008
a(lp7009
a(lp7010
a(lp7011
a(lp7012
a(lp7013
a(lp7014
a(lp7015
a(lp7016
F579.29488406216478
aF-1.2232483470597799
aF11.752422324207146
aF40.258851186081301
aF-15.870011083052304
aF-79.647994510878561
aF-2.6839778399789793
aF-3.2784164716304076
aF410.14030429664672
aF61.321722455431882
aa(lp7017
a(lp7018
a(lp7019
a(lp7020
a(lp7021
a(lp7022
a(lp7023
a(lp7024
a(lp7025
a(lp7026
a(lp7027
a(lp7028
a(lp7029
a(lp7030
a(lp7031
a(lp7032
a(lp7033
a(lp7034
a(lp7035
a(lp7036
a(lp7037
a(lp7038
a(lp7039
a(lp7040
a(lp7041
a(lp7042
a(lp7043
a(lp7044
a(lp7045
a(lp7046
a(lp7047
a(lp7048
F288.57373024493427
aF-0.4719218793525215
aF26.823689580623977
aF0.58137459291174309
aF-8.9330598029846442
aF20.737851968988252
aF46.670229636447402
aF-3.0706900133736781
aF225.3486648839953
aF30.862015876209625
aa(lp7049
a(lp7050
a(lp7051
a(lp7052
a(lp7053
a(lp7054
a(lp7055
a(lp7056
a(lp7057
a(lp7058
a(lp7059
a(lp7060
a(lp7061
a(lp7062
a(lp7063
a(lp7064
a(lp7065
a(lp7066
a(lp7067
a(lp7068
a(lp7069
a(lp7070
a(lp7071
a(lp7072
a(lp7073
a(lp7074
a(lp7075
a(lp7076
a(lp7077
a(lp7078
a(lp7079
a(lp7080
a(lp7081
a(lp7082
a(lp7083
a(lp7084
a(lp7085
a(lp7086
a(lp7087
a(lp7088
a(lp7089
a(lp7090
a(lp7091
a(lp7092
a(lp7093
a(lp7094
a(lp7095
a(lp7096
F285.10334191267361
aF-0.9457011174163199
aF16.334921149052661
aF14.346006249610355
aF-9.7745486371536572
aF-23.596767029232524
aF-7.1456438988093396
aF-0.34084646216570036
aF253.11101836678063
aF33.190128068127933
aa(lp7097
a(lp7098
a(lp7099
a(lp7100
a(lp7101
a(lp7102
a(lp7103
a(lp7104
a(lp7105
a(lp7106
a(lp7107
a(lp7108
a(lp7109
a(lp7110
a(lp7111
a(lp7112
a(lp7113
a(lp7114
a(lp7115
a(lp7116
a(lp7117
a(lp7118
a(lp7119
a(lp7120
a(lp7121
a(lp7122
a(lp7123
a(lp7124
a(lp7125
a(lp7126
a(lp7127
a(lp7128
a(lp7129
a(lp7130
a(lp7131
a(lp7132
a(lp7133
a(lp7134
a(lp7135
F84.612731221511694
aF-0.70606116508997729
aF25.378677825926843
aF53.865064408853414
aF-21.568992103482287
aF18.78070587935099
aF-5.8277821679553199
aF0.87408125182264484
aF58.802774738353492
aF12.944668803527293
aa(lp7136
a(lp7137
F53.915183428898672
aF-0.79933286656341807
aF32.143322670208363
aF45.257367631279521
aF-12.835804952260332
aF-22.925255294126146
aF42.494078655863632
aF2.2708192659592896
aF44.75179977703192
aF12.102291080395844
aa(lp7138
a(lp7139
a(lp7140
a(lp7141
a(lp7142
a(lp7143
a(lp7144
a(lp7145
a(lp7146
a(lp7147
a(lp7148
a(lp7149
a(lp7150
a(lp7151
a(lp7152
a(lp7153
F-62.075149998008783
aF-0.24419080091320211
aF1.7254109252462513
aF15.406056164124493
aF-12.313338260128148
aF-0.7397016332788553
aF13.845498969544678
aF1.7602175717001955
aF22.472207206192252
aF2.3700110318713996
aa(lp7154
a(lp7155
a(lp7156
a(lp7157
a(lp7158
a(lp7159
a(lp7160
F-36.141328285665963
aF-0.040448089322353553
aF6.0416906144666882
aF-10.86694041418923
aF-6.4222608120445557
aF-14.00636424619961
aF11.362462526420813
aF0.25285138427477705
aF6.3227835855883541
aF0.2869359860824261
aa(lp7161
a(lp7162
a(lp7163
a(lp7164
a(lp7165
a(lp7166
a(lp7167
a(lp7168
a(lp7169
a(lp7170
a(lp7171
a(lp7172
a(lp7173
a(lp7174
a(lp7175
a(lp7176
F-8.812187912710101
aF-0.058160876115209703
aF2.4018329325414811
aF9.4335145917057162
aF-4.1024478258933073
aF3.5817730115184077
aF10.169954300920381
aF0.29835285353385643
aF4.6705522116496923
aF0.66434626688760545
aa(lp7177
a(lp7178
a(lp7179
a(lp7180
a(lp7181
a(lp7182
a(lp7183
a(lp7184
a(lp7185
a(lp7186
a(lp7187
a(lp7188
a(lp7189
a(lp7190
a(lp7191
a(lp7192
a(lp7193
a(lp7194
a(lp7195
a(lp7196
a(lp7197
a(lp7198
a(lp7199
F-21.887871071157861
aF-0.33290810108610458
aF4.6785920915226598
aF-9.19326312853741
aF-3.0920884519503034
aF-22.193588566921107
aF-7.4365789082264655
aF0.24290711664320952
aF5.0034712373303591
aF9.2663841044782203
aa(lp7200
a(lp7201
F-6.6623779382268822
aF0.032314984022008275
aF-1.0149619478205807
aF-16.582229489525702
aF-2.3788067626817622
aF12.875302191073246
aF14.757904642781483
aF-0.38677119285068784
aF0.44648597041785365
aF-0.31577199743892947
aa(lp7202
a(lp7203
a(lp7204
a(lp7205
a(lp7206
a(lp7207
a(lp7208
F21.535099925529266
aF0.071851458116611866
aF-8.5390311710398237
aF-64.862125626063971
aF6.0432922222020125
aF-42.678241918281401
aF25.684409354909121
aF0.23284747463492295
aF-3.7158992327590568
aF0.85180138498230917
aa(lp7209
a(lp7210
a(lp7211
a(lp7212
a(lp7213
a(lp7214
a(lp7215
F-0.64702190272214466
aF-0.1701637053486138
aF5.4701635221476863
aF60.371915999724024
aF-19.696980047001489
aF13.826482270218321
aF22.43265324608501
aF-1.6962188098545994
aF11.927074972106766
aF2.3943732330167222
aa(lp7216
a(lp7217
a(lp7218
a(lp7219
a(lp7220
a(lp7221
a(lp7222
a(lp7223
a(lp7224
a(lp7225
a(lp7226
a(lp7227
a(lp7228
a(lp7229
a(lp7230
a(lp7231
a(lp7232
a(lp7233
a(lp7234
a(lp7235
a(lp7236
a(lp7237
a(lp7238
a(lp7239
a(lp7240
a(lp7241
a(lp7242
a(lp7243
a(lp7244
a(lp7245
a(lp7246
a(lp7247
a(lp7248
a(lp7249
a(lp7250
a(lp7251
a(lp7252
a(lp7253
a(lp7254
a(lp7255
a(lp7256
a(lp7257
a(lp7258
a(lp7259
a(lp7260
a(lp7261
a(lp7262
a(lp7263
a(lp7264
a(lp7265
a(lp7266
a(lp7267
a(lp7268
a(lp7269
a(lp7270
a(lp7271
a(lp7272
a(lp7273
a(lp7274
a(lp7275
a(lp7276
a(lp7277
a(lp7278
a(lp7279
a(lp7280
a(lp7281
a(lp7282
a(lp7283
a(lp7284
a(lp7285
a(lp7286
a(lp7287
a(lp7288
a(lp7289
a(lp7290
a(lp7291
a(lp7292
a(lp7293
a(lp7294
a(lp7295
a(lp7296
a(lp7297
a(lp7298
a(lp7299
a(lp7300
a(lp7301
a(lp7302
a(lp7303
a(lp7304
a(lp7305
a(lp7306
a(lp7307
a(lp7308
a(lp7309
a(lp7310
a(lp7311
F529.44368320595458
aF-0.28003022123357368
aF11.27748632256953
aF17.58482497393743
aF20.956570878638558
aF57.097316386034436
aF6.3269212091654481
aF-5.6220045507870964
aF342.06786239110443
aF39.497852455383509
aa(lp7312
a(lp7313
a(lp7314
a(lp7315
a(lp7316
a(lp7317
a(lp7318
a(lp7319
a(lp7320
a(lp7321
a(lp7322
atbsb.