ccopy_reg
_reconstructor
p1
(cscipy.sparse.lil
lil_matrix
p2
c__builtin__
object
p3
NtRp4
(dp5
S'rows'
p6
cnumpy.core.multiarray
_reconstruct
p7
(cnumpy
ndarray
p8
(I0
tS'b'
tRp9
(I1
(I3650
tcnumpy
dtype
p10
(S'O8'
I0
I1
tRp11
(I3
S'|'
NNNI-1
I-1
I63
tbI00
(lp12
(lp13
a(lp14
a(lp15
a(lp16
a(lp17
a(lp18
a(lp19
a(lp20
a(lp21
a(lp22
a(lp23
a(lp24
a(lp25
a(lp26
a(lp27
a(lp28
a(lp29
a(lp30
a(lp31
a(lp32
a(lp33
a(lp34
a(lp35
a(lp36
a(lp37
a(lp38
a(lp39
a(lp40
a(lp41
a(lp42
a(lp43
a(lp44
a(lp45
a(lp46
a(lp47
a(lp48
a(lp49
a(lp50
a(lp51
a(lp52
a(lp53
a(lp54
a(lp55
a(lp56
a(lp57
a(lp58
a(lp59
a(lp60
a(lp61
a(lp62
a(lp63
a(lp64
a(lp65
a(lp66
a(lp67
a(lp68
a(lp69
a(lp70
a(lp71
I58
aI423
aI788
aI1153
aI1518
aI1883
aI2248
aI2613
aI2978
aI3343
aa(lp72
a(lp73
a(lp74
a(lp75
a(lp76
a(lp77
a(lp78
a(lp79
a(lp80
a(lp81
a(lp82
a(lp83
a(lp84
a(lp85
a(lp86
a(lp87
a(lp88
a(lp89
I76
aI441
aI806
aI1171
aI1536
aI1901
aI2266
aI2631
aI2996
aI3361
aa(lp90
a(lp91
a(lp92
a(lp93
a(lp94
a(lp95
a(lp96
I83
aI448
aI813
aI1178
aI1543
aI1908
aI2273
aI2638
aI3003
aI3368
aa(lp97
a(lp98
a(lp99
a(lp100
a(lp101
a(lp102
a(lp103
a(lp104
a(lp105
a(lp106
a(lp107
a(lp108
a(lp109
a(lp110
a(lp111
a(lp112
a(lp113
a(lp114
a(lp115
a(lp116
a(lp117
a(lp118
a(lp119
a(lp120
a(lp121
I108
aI473
aI838
aI1203
aI1568
aI1933
aI2298
aI2663
aI3028
aI3393
aa(lp122
a(lp123
a(lp124
a(lp125
a(lp126
a(lp127
a(lp128
a(lp129
a(lp130
a(lp131
a(lp132
a(lp133
a(lp134
a(lp135
I122
aI487
aI852
aI1217
aI1582
aI1947
aI2312
aI2677
aI3042
aI3407
aa(lp136
a(lp137
I124
aI489
aI854
aI1219
aI1584
aI1949
aI2314
aI2679
aI3044
aI3409
aa(lp138
a(lp139
a(lp140
a(lp141
a(lp142
a(lp143
a(lp144
a(lp145
a(lp146
a(lp147
a(lp148
a(lp149
a(lp150
a(lp151
a(lp152
a(lp153
a(lp154
a(lp155
a(lp156
a(lp157
a(lp158
a(lp159
a(lp160
a(lp161
a(lp162
a(lp163
a(lp164
a(lp165
a(lp166
a(lp167
a(lp168
a(lp169
I156
aI521
aI886
aI1251
aI1616
aI1981
aI2346
aI2711
aI3076
aI3441
aa(lp170
a(lp171
a(lp172
a(lp173
a(lp174
a(lp175
a(lp176
a(lp177
a(lp178
a(lp179
a(lp180
a(lp181
a(lp182
a(lp183
I170
aI535
aI900
aI1265
aI1630
aI1995
aI2360
aI2725
aI3090
aI3455
aa(lp184
a(lp185
I172
aI537
aI902
aI1267
aI1632
aI1997
aI2362
aI2727
aI3092
aI3457
aa(lp186
a(lp187
a(lp188
a(lp189
a(lp190
a(lp191
a(lp192
a(lp193
a(lp194
a(lp195
a(lp196
a(lp197
a(lp198
a(lp199
a(lp200
a(lp201
a(lp202
a(lp203
a(lp204
a(lp205
a(lp206
a(lp207
a(lp208
I195
aI560
aI925
aI1290
aI1655
aI2020
aI2385
aI2750
aI3115
aI3480
aa(lp209
a(lp210
a(lp211
a(lp212
a(lp213
a(lp214
a(lp215
I202
aI567
aI932
aI1297
aI1662
aI2027
aI2392
aI2757
aI3122
aI3487
aa(lp216
a(lp217
a(lp218
a(lp219
a(lp220
a(lp221
a(lp222
a(lp223
a(lp224
a(lp225
a(lp226
a(lp227
a(lp228
a(lp229
a(lp230
a(lp231
a(lp232
a(lp233
a(lp234
a(lp235
a(lp236
a(lp237
a(lp238
a(lp239
a(lp240
I227
aI592
aI957
aI1322
aI1687
aI2052
aI2417
aI2782
aI3147
aI3512
aa(lp241
a(lp242
a(lp243
a(lp244
a(lp245
a(lp246
a(lp247
I234
aI599
aI964
aI1329
aI1694
aI2059
aI2424
aI2789
aI3154
aI3519
aa(lp248
a(lp249
I236
aI601
aI966
aI1331
aI1696
aI2061
aI2426
aI2791
aI3156
aI3521
aa(lp250
a(lp251
a(lp252
a(lp253
a(lp254
a(lp255
a(lp256
I243
aI608
aI973
aI1338
aI1703
aI2068
aI2433
aI2798
aI3163
aI3528
aa(lp257
a(lp258
a(lp259
a(lp260
a(lp261
a(lp262
a(lp263
a(lp264
a(lp265
a(lp266
a(lp267
a(lp268
a(lp269
a(lp270
a(lp271
a(lp272
I259
aI624
aI989
aI1354
aI1719
aI2084
aI2449
aI2814
aI3179
aI3544
aa(lp273
a(lp274
a(lp275
a(lp276
a(lp277
a(lp278
a(lp279
a(lp280
a(lp281
I268
aI633
aI998
aI1363
aI1728
aI2093
aI2458
aI2823
aI3188
aI3553
aa(lp282
a(lp283
a(lp284
a(lp285
a(lp286
a(lp287
a(lp288
a(lp289
a(lp290
a(lp291
a(lp292
a(lp293
a(lp294
a(lp295
a(lp296
a(lp297
a(lp298
a(lp299
a(lp300
a(lp301
a(lp302
a(lp303
a(lp304
I291
aI656
aI1021
aI1386
aI1751
aI2116
aI2481
aI2846
aI3211
aI3576
aa(lp305
a(lp306
a(lp307
a(lp308
a(lp309
a(lp310
a(lp311
a(lp312
a(lp313
I300
aI665
aI1030
aI1395
aI1760
aI2125
aI2490
aI2855
aI3220
aI3585
aa(lp314
a(lp315
a(lp316
a(lp317
a(lp318
a(lp319
a(lp320
a(lp321
a(lp322
a(lp323
a(lp324
a(lp325
a(lp326
a(lp327
a(lp328
a(lp329
a(lp330
a(lp331
a(lp332
a(lp333
a(lp334
a(lp335
a(lp336
a(lp337
a(lp338
a(lp339
a(lp340
a(lp341
a(lp342
a(lp343
a(lp344
a(lp345
a(lp346
a(lp347
a(lp348
a(lp349
a(lp350
a(lp351
a(lp352
a(lp353
a(lp354
a(lp355
a(lp356
a(lp357
a(lp358
a(lp359
a(lp360
a(lp361
a(lp362
a(lp363
a(lp364
a(lp365
a(lp366
a(lp367
a(lp368
a(lp369
a(lp370
a(lp371
a(lp372
a(lp373
a(lp374
a(lp375
a(lp376
a(lp377
a(lp378
a(lp379
a(lp380
a(lp381
a(lp382
a(lp383
a(lp384
a(lp385
a(lp386
a(lp387
a(lp388
a(lp389
a(lp390
a(lp391
a(lp392
a(lp393
a(lp394
a(lp395
a(lp396
a(lp397
a(lp398
a(lp399
a(lp400
a(lp401
a(lp402
a(lp403
a(lp404
a(lp405
a(lp406
a(lp407
a(lp408
a(lp409
a(lp410
a(lp411
a(lp412
a(lp413
a(lp414
a(lp415
a(lp416
a(lp417
a(lp418
a(lp419
a(lp420
a(lp421
a(lp422
a(lp423
a(lp424
a(lp425
a(lp426
a(lp427
a(lp428
a(lp429
a(lp430
a(lp431
a(lp432
a(lp433
a(lp434
a(lp435
a(lp436
I58
aI423
aI788
aI1153
aI1518
aI1883
aI2248
aI2613
aI2978
aI3343
aa(lp437
a(lp438
a(lp439
a(lp440
a(lp441
a(lp442
a(lp443
a(lp444
a(lp445
a(lp446
a(lp447
a(lp448
a(lp449
a(lp450
a(lp451
a(lp452
a(lp453
a(lp454
I76
aI441
aI806
aI1171
aI1536
aI1901
aI2266
aI2631
aI2996
aI3361
aa(lp455
a(lp456
a(lp457
a(lp458
a(lp459
a(lp460
a(lp461
I83
aI448
aI813
aI1178
aI1543
aI1908
aI2273
aI2638
aI3003
aI3368
aa(lp462
a(lp463
a(lp464
a(lp465
a(lp466
a(lp467
a(lp468
a(lp469
a(lp470
a(lp471
a(lp472
a(lp473
a(lp474
a(lp475
a(lp476
a(lp477
a(lp478
a(lp479
a(lp480
a(lp481
a(lp482
a(lp483
a(lp484
a(lp485
a(lp486
I108
aI473
aI838
aI1203
aI1568
aI1933
aI2298
aI2663
aI3028
aI3393
aa(lp487
a(lp488
a(lp489
a(lp490
a(lp491
a(lp492
a(lp493
a(lp494
a(lp495
a(lp496
a(lp497
a(lp498
a(lp499
a(lp500
I122
aI487
aI852
aI1217
aI1582
aI1947
aI2312
aI2677
aI3042
aI3407
aa(lp501
a(lp502
I124
aI489
aI854
aI1219
aI1584
aI1949
aI2314
aI2679
aI3044
aI3409
aa(lp503
a(lp504
a(lp505
a(lp506
a(lp507
a(lp508
a(lp509
a(lp510
a(lp511
a(lp512
a(lp513
a(lp514
a(lp515
a(lp516
a(lp517
a(lp518
a(lp519
a(lp520
a(lp521
a(lp522
a(lp523
a(lp524
a(lp525
a(lp526
a(lp527
a(lp528
a(lp529
a(lp530
a(lp531
a(lp532
a(lp533
a(lp534
I156
aI521
aI886
aI1251
aI1616
aI1981
aI2346
aI2711
aI3076
aI3441
aa(lp535
a(lp536
a(lp537
a(lp538
a(lp539
a(lp540
a(lp541
a(lp542
a(lp543
a(lp544
a(lp545
a(lp546
a(lp547
a(lp548
I170
aI535
aI900
aI1265
aI1630
aI1995
aI2360
aI2725
aI3090
aI3455
aa(lp549
a(lp550
I172
aI537
aI902
aI1267
aI1632
aI1997
aI2362
aI2727
aI3092
aI3457
aa(lp551
a(lp552
a(lp553
a(lp554
a(lp555
a(lp556
a(lp557
a(lp558
a(lp559
a(lp560
a(lp561
a(lp562
a(lp563
a(lp564
a(lp565
a(lp566
a(lp567
a(lp568
a(lp569
a(lp570
a(lp571
a(lp572
a(lp573
I195
aI560
aI925
aI1290
aI1655
aI2020
aI2385
aI2750
aI3115
aI3480
aa(lp574
a(lp575
a(lp576
a(lp577
a(lp578
a(lp579
a(lp580
I202
aI567
aI932
aI1297
aI1662
aI2027
aI2392
aI2757
aI3122
aI3487
aa(lp581
a(lp582
a(lp583
a(lp584
a(lp585
a(lp586
a(lp587
a(lp588
a(lp589
a(lp590
a(lp591
a(lp592
a(lp593
a(lp594
a(lp595
a(lp596
a(lp597
a(lp598
a(lp599
a(lp600
a(lp601
a(lp602
a(lp603
a(lp604
a(lp605
I227
aI592
aI957
aI1322
aI1687
aI2052
aI2417
aI2782
aI3147
aI3512
aa(lp606
a(lp607
a(lp608
a(lp609
a(lp610
a(lp611
a(lp612
I234
aI599
aI964
aI1329
aI1694
aI2059
aI2424
aI2789
aI3154
aI3519
aa(lp613
a(lp614
I236
aI601
aI966
aI1331
aI1696
aI2061
aI2426
aI2791
aI3156
aI3521
aa(lp615
a(lp616
a(lp617
a(lp618
a(lp619
a(lp620
a(lp621
I243
aI608
aI973
aI1338
aI1703
aI2068
aI2433
aI2798
aI3163
aI3528
aa(lp622
a(lp623
a(lp624
a(lp625
a(lp626
a(lp627
a(lp628
a(lp629
a(lp630
a(lp631
a(lp632
a(lp633
a(lp634
a(lp635
a(lp636
a(lp637
I259
aI624
aI989
aI1354
aI1719
aI2084
aI2449
aI2814
aI3179
aI3544
aa(lp638
a(lp639
a(lp640
a(lp641
a(lp642
a(lp643
a(lp644
a(lp645
a(lp646
I268
aI633
aI998
aI1363
aI1728
aI2093
aI2458
aI2823
aI3188
aI3553
aa(lp647
a(lp648
a(lp649
a(lp650
a(lp651
a(lp652
a(lp653
a(lp654
a(lp655
a(lp656
a(lp657
a(lp658
a(lp659
a(lp660
a(lp661
a(lp662
a(lp663
a(lp664
a(lp665
a(lp666
a(lp667
a(lp668
a(lp669
I291
aI656
aI1021
aI1386
aI1751
aI2116
aI2481
aI2846
aI3211
aI3576
aa(lp670
a(lp671
a(lp672
a(lp673
a(lp674
a(lp675
a(lp676
a(lp677
a(lp678
I300
aI665
aI1030
aI1395
aI1760
aI2125
aI2490
aI2855
aI3220
aI3585
aa(lp679
a(lp680
a(lp681
a(lp682
a(lp683
a(lp684
a(lp685
a(lp686
a(lp687
a(lp688
a(lp689
a(lp690
a(lp691
a(lp692
a(lp693
a(lp694
a(lp695
a(lp696
a(lp697
a(lp698
a(lp699
a(lp700
a(lp701
a(lp702
a(lp703
a(lp704
a(lp705
a(lp706
a(lp707
a(lp708
a(lp709
a(lp710
a(lp711
a(lp712
a(lp713
a(lp714
a(lp715
a(lp716
a(lp717
a(lp718
a(lp719
a(lp720
a(lp721
a(lp722
a(lp723
a(lp724
a(lp725
a(lp726
a(lp727
a(lp728
a(lp729
a(lp730
a(lp731
a(lp732
a(lp733
a(lp734
a(lp735
a(lp736
a(lp737
a(lp738
a(lp739
a(lp740
a(lp741
a(lp742
a(lp743
a(lp744
a(lp745
a(lp746
a(lp747
a(lp748
a(lp749
a(lp750
a(lp751
a(lp752
a(lp753
a(lp754
a(lp755
a(lp756
a(lp757
a(lp758
a(lp759
a(lp760
a(lp761
a(lp762
a(lp763
a(lp764
a(lp765
a(lp766
a(lp767
a(lp768
a(lp769
a(lp770
a(lp771
a(lp772
a(lp773
a(lp774
a(lp775
a(lp776
a(lp777
a(lp778
a(lp779
a(lp780
a(lp781
a(lp782
a(lp783
a(lp784
a(lp785
a(lp786
a(lp787
a(lp788
a(lp789
a(lp790
a(lp791
a(lp792
a(lp793
a(lp794
a(lp795
a(lp796
a(lp797
a(lp798
a(lp799
a(lp800
a(lp801
I58
aI423
aI788
aI1153
aI1518
aI1883
aI2248
aI2613
aI2978
aI3343
aa(lp802
a(lp803
a(lp804
a(lp805
a(lp806
a(lp807
a(lp808
a(lp809
a(lp810
a(lp811
a(lp812
a(lp813
a(lp814
a(lp815
a(lp816
a(lp817
a(lp818
a(lp819
I76
aI441
aI806
aI1171
aI1536
aI1901
aI2266
aI2631
aI2996
aI3361
aa(lp820
a(lp821
a(lp822
a(lp823
a(lp824
a(lp825
a(lp826
I83
aI448
aI813
aI1178
aI1543
aI1908
aI2273
aI2638
aI3003
aI3368
aa(lp827
a(lp828
a(lp829
a(lp830
a(lp831
a(lp832
a(lp833
a(lp834
a(lp835
a(lp836
a(lp837
a(lp838
a(lp839
a(lp840
a(lp841
a(lp842
a(lp843
a(lp844
a(lp845
a(lp846
a(lp847
a(lp848
a(lp849
a(lp850
a(lp851
I108
aI473
aI838
aI1203
aI1568
aI1933
aI2298
aI2663
aI3028
aI3393
aa(lp852
a(lp853
a(lp854
a(lp855
a(lp856
a(lp857
a(lp858
a(lp859
a(lp860
a(lp861
a(lp862
a(lp863
a(lp864
a(lp865
I122
aI487
aI852
aI1217
aI1582
aI1947
aI2312
aI2677
aI3042
aI3407
aa(lp866
a(lp867
I124
aI489
aI854
aI1219
aI1584
aI1949
aI2314
aI2679
aI3044
aI3409
aa(lp868
a(lp869
a(lp870
a(lp871
a(lp872
a(lp873
a(lp874
a(lp875
a(lp876
a(lp877
a(lp878
a(lp879
a(lp880
a(lp881
a(lp882
a(lp883
a(lp884
a(lp885
a(lp886
a(lp887
a(lp888
a(lp889
a(lp890
a(lp891
a(lp892
a(lp893
a(lp894
a(lp895
a(lp896
a(lp897
a(lp898
a(lp899
I156
aI521
aI886
aI1251
aI1616
aI1981
aI2346
aI2711
aI3076
aI3441
aa(lp900
a(lp901
a(lp902
a(lp903
a(lp904
a(lp905
a(lp906
a(lp907
a(lp908
a(lp909
a(lp910
a(lp911
a(lp912
a(lp913
I170
aI535
aI900
aI1265
aI1630
aI1995
aI2360
aI2725
aI3090
aI3455
aa(lp914
a(lp915
I172
aI537
aI902
aI1267
aI1632
aI1997
aI2362
aI2727
aI3092
aI3457
aa(lp916
a(lp917
a(lp918
a(lp919
a(lp920
a(lp921
a(lp922
a(lp923
a(lp924
a(lp925
a(lp926
a(lp927
a(lp928
a(lp929
a(lp930
a(lp931
a(lp932
a(lp933
a(lp934
a(lp935
a(lp936
a(lp937
a(lp938
I195
aI560
aI925
aI1290
aI1655
aI2020
aI2385
aI2750
aI3115
aI3480
aa(lp939
a(lp940
a(lp941
a(lp942
a(lp943
a(lp944
a(lp945
I202
aI567
aI932
aI1297
aI1662
aI2027
aI2392
aI2757
aI3122
aI3487
aa(lp946
a(lp947
a(lp948
a(lp949
a(lp950
a(lp951
a(lp952
a(lp953
a(lp954
a(lp955
a(lp956
a(lp957
a(lp958
a(lp959
a(lp960
a(lp961
a(lp962
a(lp963
a(lp964
a(lp965
a(lp966
a(lp967
a(lp968
a(lp969
a(lp970
I227
aI592
aI957
aI1322
aI1687
aI2052
aI2417
aI2782
aI3147
aI3512
aa(lp971
a(lp972
a(lp973
a(lp974
a(lp975
a(lp976
a(lp977
I234
aI599
aI964
aI1329
aI1694
aI2059
aI2424
aI2789
aI3154
aI3519
aa(lp978
a(lp979
I236
aI601
aI966
aI1331
aI1696
aI2061
aI2426
aI2791
aI3156
aI3521
aa(lp980
a(lp981
a(lp982
a(lp983
a(lp984
a(lp985
a(lp986
I243
aI608
aI973
aI1338
aI1703
aI2068
aI2433
aI2798
aI3163
aI3528
aa(lp987
a(lp988
a(lp989
a(lp990
a(lp991
a(lp992
a(lp993
a(lp994
a(lp995
a(lp996
a(lp997
a(lp998
a(lp999
a(lp1000
a(lp1001
a(lp1002
I259
aI624
aI989
aI1354
aI1719
aI2084
aI2449
aI2814
aI3179
aI3544
aa(lp1003
a(lp1004
a(lp1005
a(lp1006
a(lp1007
a(lp1008
a(lp1009
a(lp1010
a(lp1011
I268
aI633
aI998
aI1363
aI1728
aI2093
aI2458
aI2823
aI3188
aI3553
aa(lp1012
a(lp1013
a(lp1014
a(lp1015
a(lp1016
a(lp1017
a(lp1018
a(lp1019
a(lp1020
a(lp1021
a(lp1022
a(lp1023
a(lp1024
a(lp1025
a(lp1026
a(lp1027
a(lp1028
a(lp1029
a(lp1030
a(lp1031
a(lp1032
a(lp1033
a(lp1034
I291
aI656
aI1021
aI1386
aI1751
aI2116
aI2481
aI2846
aI3211
aI3576
aa(lp1035
a(lp1036
a(lp1037
a(lp1038
a(lp1039
a(lp1040
a(lp1041
a(lp1042
a(lp1043
I300
aI665
aI1030
aI1395
aI1760
aI2125
aI2490
aI2855
aI3220
aI3585
aa(lp1044
a(lp1045
a(lp1046
a(lp1047
a(lp1048
a(lp1049
a(lp1050
a(lp1051
a(lp1052
a(lp1053
a(lp1054
a(lp1055
a(lp1056
a(lp1057
a(lp1058
a(lp1059
a(lp1060
a(lp1061
a(lp1062
a(lp1063
a(lp1064
a(lp1065
a(lp1066
a(lp1067
a(lp1068
a(lp1069
a(lp1070
a(lp1071
a(lp1072
a(lp1073
a(lp1074
a(lp1075
a(lp1076
a(lp1077
a(lp1078
a(lp1079
a(lp1080
a(lp1081
a(lp1082
a(lp1083
a(lp1084
a(lp1085
a(lp1086
a(lp1087
a(lp1088
a(lp1089
a(lp1090
a(lp1091
a(lp1092
a(lp1093
a(lp1094
a(lp1095
a(lp1096
a(lp1097
a(lp1098
a(lp1099
a(lp1100
a(lp1101
a(lp1102
a(lp1103
a(lp1104
a(lp1105
a(lp1106
a(lp1107
a(lp1108
a(lp1109
a(lp1110
a(lp1111
a(lp1112
a(lp1113
a(lp1114
a(lp1115
a(lp1116
a(lp1117
a(lp1118
a(lp1119
a(lp1120
a(lp1121
a(lp1122
a(lp1123
a(lp1124
a(lp1125
a(lp1126
a(lp1127
a(lp1128
a(lp1129
a(lp1130
a(lp1131
a(lp1132
a(lp1133
a(lp1134
a(lp1135
a(lp1136
a(lp1137
a(lp1138
a(lp1139
a(lp1140
a(lp1141
a(lp1142
a(lp1143
a(lp1144
a(lp1145
a(lp1146
a(lp1147
a(lp1148
a(lp1149
a(lp1150
a(lp1151
a(lp1152
a(lp1153
a(lp1154
a(lp1155
a(lp1156
a(lp1157
a(lp1158
a(lp1159
a(lp1160
a(lp1161
a(lp1162
a(lp1163
a(lp1164
a(lp1165
a(lp1166
I58
aI423
aI788
aI1153
aI1518
aI1883
aI2248
aI2613
aI2978
aI3343
aa(lp1167
a(lp1168
a(lp1169
a(lp1170
a(lp1171
a(lp1172
a(lp1173
a(lp1174
a(lp1175
a(lp1176
a(lp1177
a(lp1178
a(lp1179
a(lp1180
a(lp1181
a(lp1182
a(lp1183
a(lp1184
I76
aI441
aI806
aI1171
aI1536
aI1901
aI2266
aI2631
aI2996
aI3361
aa(lp1185
a(lp1186
a(lp1187
a(lp1188
a(lp1189
a(lp1190
a(lp1191
I83
aI448
aI813
aI1178
aI1543
aI1908
aI2273
aI2638
aI3003
aI3368
aa(lp1192
a(lp1193
a(lp1194
a(lp1195
a(lp1196
a(lp1197
a(lp1198
a(lp1199
a(lp1200
a(lp1201
a(lp1202
a(lp1203
a(lp1204
a(lp1205
a(lp1206
a(lp1207
a(lp1208
a(lp1209
a(lp1210
a(lp1211
a(lp1212
a(lp1213
a(lp1214
a(lp1215
a(lp1216
I108
aI473
aI838
aI1203
aI1568
aI1933
aI2298
aI2663
aI3028
aI3393
aa(lp1217
a(lp1218
a(lp1219
a(lp1220
a(lp1221
a(lp1222
a(lp1223
a(lp1224
a(lp1225
a(lp1226
a(lp1227
a(lp1228
a(lp1229
a(lp1230
I122
aI487
aI852
aI1217
aI1582
aI1947
aI2312
aI2677
aI3042
aI3407
aa(lp1231
a(lp1232
I124
aI489
aI854
aI1219
aI1584
aI1949
aI2314
aI2679
aI3044
aI3409
aa(lp1233
a(lp1234
a(lp1235
a(lp1236
a(lp1237
a(lp1238
a(lp1239
a(lp1240
a(lp1241
a(lp1242
a(lp1243
a(lp1244
a(lp1245
a(lp1246
a(lp1247
a(lp1248
a(lp1249
a(lp1250
a(lp1251
a(lp1252
a(lp1253
a(lp1254
a(lp1255
a(lp1256
a(lp1257
a(lp1258
a(lp1259
a(lp1260
a(lp1261
a(lp1262
a(lp1263
a(lp1264
I156
aI521
aI886
aI1251
aI1616
aI1981
aI2346
aI2711
aI3076
aI3441
aa(lp1265
a(lp1266
a(lp1267
a(lp1268
a(lp1269
a(lp1270
a(lp1271
a(lp1272
a(lp1273
a(lp1274
a(lp1275
a(lp1276
a(lp1277
a(lp1278
I170
aI535
aI900
aI1265
aI1630
aI1995
aI2360
aI2725
aI3090
aI3455
aa(lp1279
a(lp1280
I172
aI537
aI902
aI1267
aI1632
aI1997
aI2362
aI2727
aI3092
aI3457
aa(lp1281
a(lp1282
a(lp1283
a(lp1284
a(lp1285
a(lp1286
a(lp1287
a(lp1288
a(lp1289
a(lp1290
a(lp1291
a(lp1292
a(lp1293
a(lp1294
a(lp1295
a(lp1296
a(lp1297
a(lp1298
a(lp1299
a(lp1300
a(lp1301
a(lp1302
a(lp1303
I195
aI560
aI925
aI1290
aI1655
aI2020
aI2385
aI2750
aI3115
aI3480
aa(lp1304
a(lp1305
a(lp1306
a(lp1307
a(lp1308
a(lp1309
a(lp1310
I202
aI567
aI932
aI1297
aI1662
aI2027
aI2392
aI2757
aI3122
aI3487
aa(lp1311
a(lp1312
a(lp1313
a(lp1314
a(lp1315
a(lp1316
a(lp1317
a(lp1318
a(lp1319
a(lp1320
a(lp1321
a(lp1322
a(lp1323
a(lp1324
a(lp1325
a(lp1326
a(lp1327
a(lp1328
a(lp1329
a(lp1330
a(lp1331
a(lp1332
a(lp1333
a(lp1334
a(lp1335
I227
aI592
aI957
aI1322
aI1687
aI2052
aI2417
aI2782
aI3147
aI3512
aa(lp1336
a(lp1337
a(lp1338
a(lp1339
a(lp1340
a(lp1341
a(lp1342
I234
aI599
aI964
aI1329
aI1694
aI2059
aI2424
aI2789
aI3154
aI3519
aa(lp1343
a(lp1344
I236
aI601
aI966
aI1331
aI1696
aI2061
aI2426
aI2791
aI3156
aI3521
aa(lp1345
a(lp1346
a(lp1347
a(lp1348
a(lp1349
a(lp1350
a(lp1351
I243
aI608
aI973
aI1338
aI1703
aI2068
aI2433
aI2798
aI3163
aI3528
aa(lp1352
a(lp1353
a(lp1354
a(lp1355
a(lp1356
a(lp1357
a(lp1358
a(lp1359
a(lp1360
a(lp1361
a(lp1362
a(lp1363
a(lp1364
a(lp1365
a(lp1366
a(lp1367
I259
aI624
aI989
aI1354
aI1719
aI2084
aI2449
aI2814
aI3179
aI3544
aa(lp1368
a(lp1369
a(lp1370
a(lp1371
a(lp1372
a(lp1373
a(lp1374
a(lp1375
a(lp1376
I268
aI633
aI998
aI1363
aI1728
aI2093
aI2458
aI2823
aI3188
aI3553
aa(lp1377
a(lp1378
a(lp1379
a(lp1380
a(lp1381
a(lp1382
a(lp1383
a(lp1384
a(lp1385
a(lp1386
a(lp1387
a(lp1388
a(lp1389
a(lp1390
a(lp1391
a(lp1392
a(lp1393
a(lp1394
a(lp1395
a(lp1396
a(lp1397
a(lp1398
a(lp1399
I291
aI656
aI1021
aI1386
aI1751
aI2116
aI2481
aI2846
aI3211
aI3576
aa(lp1400
a(lp1401
a(lp1402
a(lp1403
a(lp1404
a(lp1405
a(lp1406
a(lp1407
a(lp1408
I300
aI665
aI1030
aI1395
aI1760
aI2125
aI2490
aI2855
aI3220
aI3585
aa(lp1409
a(lp1410
a(lp1411
a(lp1412
a(lp1413
a(lp1414
a(lp1415
a(lp1416
a(lp1417
a(lp1418
a(lp1419
a(lp1420
a(lp1421
a(lp1422
a(lp1423
a(lp1424
a(lp1425
a(lp1426
a(lp1427
a(lp1428
a(lp1429
a(lp1430
a(lp1431
a(lp1432
a(lp1433
a(lp1434
a(lp1435
a(lp1436
a(lp1437
a(lp1438
a(lp1439
a(lp1440
a(lp1441
a(lp1442
a(lp1443
a(lp1444
a(lp1445
a(lp1446
a(lp1447
a(lp1448
a(lp1449
a(lp1450
a(lp1451
a(lp1452
a(lp1453
a(lp1454
a(lp1455
a(lp1456
a(lp1457
a(lp1458
a(lp1459
a(lp1460
a(lp1461
a(lp1462
a(lp1463
a(lp1464
a(lp1465
a(lp1466
a(lp1467
a(lp1468
a(lp1469
a(lp1470
a(lp1471
a(lp1472
a(lp1473
a(lp1474
a(lp1475
a(lp1476
a(lp1477
a(lp1478
a(lp1479
a(lp1480
a(lp1481
a(lp1482
a(lp1483
a(lp1484
a(lp1485
a(lp1486
a(lp1487
a(lp1488
a(lp1489
a(lp1490
a(lp1491
a(lp1492
a(lp1493
a(lp1494
a(lp1495
a(lp1496
a(lp1497
a(lp1498
a(lp1499
a(lp1500
a(lp1501
a(lp1502
a(lp1503
a(lp1504
a(lp1505
a(lp1506
a(lp1507
a(lp1508
a(lp1509
a(lp1510
a(lp1511
a(lp1512
a(lp1513
a(lp1514
a(lp1515
a(lp1516
a(lp1517
a(lp1518
a(lp1519
a(lp1520
a(lp1521
a(lp1522
a(lp1523
a(lp1524
a(lp1525
a(lp1526
a(lp1527
a(lp1528
a(lp1529
a(lp1530
a(lp1531
I58
aI423
aI788
aI1153
aI1518
aI1883
aI2248
aI2613
aI2978
aI3343
aa(lp1532
a(lp1533
a(lp1534
a(lp1535
a(lp1536
a(lp1537
a(lp1538
a(lp1539
a(lp1540
a(lp1541
a(lp1542
a(lp1543
a(lp1544
a(lp1545
a(lp1546
a(lp1547
a(lp1548
a(lp1549
I76
aI441
aI806
aI1171
aI1536
aI1901
aI2266
aI2631
aI2996
aI3361
aa(lp1550
a(lp1551
a(lp1552
a(lp1553
a(lp1554
a(lp1555
a(lp1556
I83
aI448
aI813
aI1178
aI1543
aI1908
aI2273
aI2638
aI3003
aI3368
aa(lp1557
a(lp1558
a(lp1559
a(lp1560
a(lp1561
a(lp1562
a(lp1563
a(lp1564
a(lp1565
a(lp1566
a(lp1567
a(lp1568
a(lp1569
a(lp1570
a(lp1571
a(lp1572
a(lp1573
a(lp1574
a(lp1575
a(lp1576
a(lp1577
a(lp1578
a(lp1579
a(lp1580
a(lp1581
I108
aI473
aI838
aI1203
aI1568
aI1933
aI2298
aI2663
aI3028
aI3393
aa(lp1582
a(lp1583
a(lp1584
a(lp1585
a(lp1586
a(lp1587
a(lp1588
a(lp1589
a(lp1590
a(lp1591
a(lp1592
a(lp1593
a(lp1594
a(lp1595
I122
aI487
aI852
aI1217
aI1582
aI1947
aI2312
aI2677
aI3042
aI3407
aa(lp1596
a(lp1597
I124
aI489
aI854
aI1219
aI1584
aI1949
aI2314
aI2679
aI3044
aI3409
aa(lp1598
a(lp1599
a(lp1600
a(lp1601
a(lp1602
a(lp1603
a(lp1604
a(lp1605
a(lp1606
a(lp1607
a(lp1608
a(lp1609
a(lp1610
a(lp1611
a(lp1612
a(lp1613
a(lp1614
a(lp1615
a(lp1616
a(lp1617
a(lp1618
a(lp1619
a(lp1620
a(lp1621
a(lp1622
a(lp1623
a(lp1624
a(lp1625
a(lp1626
a(lp1627
a(lp1628
a(lp1629
I156
aI521
aI886
aI1251
aI1616
aI1981
aI2346
aI2711
aI3076
aI3441
aa(lp1630
a(lp1631
a(lp1632
a(lp1633
a(lp1634
a(lp1635
a(lp1636
a(lp1637
a(lp1638
a(lp1639
a(lp1640
a(lp1641
a(lp1642
a(lp1643
I170
aI535
aI900
aI1265
aI1630
aI1995
aI2360
aI2725
aI3090
aI3455
aa(lp1644
a(lp1645
I172
aI537
aI902
aI1267
aI1632
aI1997
aI2362
aI2727
aI3092
aI3457
aa(lp1646
a(lp1647
a(lp1648
a(lp1649
a(lp1650
a(lp1651
a(lp1652
a(lp1653
a(lp1654
a(lp1655
a(lp1656
a(lp1657
a(lp1658
a(lp1659
a(lp1660
a(lp1661
a(lp1662
a(lp1663
a(lp1664
a(lp1665
a(lp1666
a(lp1667
a(lp1668
I195
aI560
aI925
aI1290
aI1655
aI2020
aI2385
aI2750
aI3115
aI3480
aa(lp1669
a(lp1670
a(lp1671
a(lp1672
a(lp1673
a(lp1674
a(lp1675
I202
aI567
aI932
aI1297
aI1662
aI2027
aI2392
aI2757
aI3122
aI3487
aa(lp1676
a(lp1677
a(lp1678
a(lp1679
a(lp1680
a(lp1681
a(lp1682
a(lp1683
a(lp1684
a(lp1685
a(lp1686
a(lp1687
a(lp1688
a(lp1689
a(lp1690
a(lp1691
a(lp1692
a(lp1693
a(lp1694
a(lp1695
a(lp1696
a(lp1697
a(lp1698
a(lp1699
a(lp1700
I227
aI592
aI957
aI1322
aI1687
aI2052
aI2417
aI2782
aI3147
aI3512
aa(lp1701
a(lp1702
a(lp1703
a(lp1704
a(lp1705
a(lp1706
a(lp1707
I234
aI599
aI964
aI1329
aI1694
aI2059
aI2424
aI2789
aI3154
aI3519
aa(lp1708
a(lp1709
I236
aI601
aI966
aI1331
aI1696
aI2061
aI2426
aI2791
aI3156
aI3521
aa(lp1710
a(lp1711
a(lp1712
a(lp1713
a(lp1714
a(lp1715
a(lp1716
I243
aI608
aI973
aI1338
aI1703
aI2068
aI2433
aI2798
aI3163
aI3528
aa(lp1717
a(lp1718
a(lp1719
a(lp1720
a(lp1721
a(lp1722
a(lp1723
a(lp1724
a(lp1725
a(lp1726
a(lp1727
a(lp1728
a(lp1729
a(lp1730
a(lp1731
a(lp1732
I259
aI624
aI989
aI1354
aI1719
aI2084
aI2449
aI2814
aI3179
aI3544
aa(lp1733
a(lp1734
a(lp1735
a(lp1736
a(lp1737
a(lp1738
a(lp1739
a(lp1740
a(lp1741
I268
aI633
aI998
aI1363
aI1728
aI2093
aI2458
aI2823
aI3188
aI3553
aa(lp1742
a(lp1743
a(lp1744
a(lp1745
a(lp1746
a(lp1747
a(lp1748
a(lp1749
a(lp1750
a(lp1751
a(lp1752
a(lp1753
a(lp1754
a(lp1755
a(lp1756
a(lp1757
a(lp1758
a(lp1759
a(lp1760
a(lp1761
a(lp1762
a(lp1763
a(lp1764
I291
aI656
aI1021
aI1386
aI1751
aI2116
aI2481
aI2846
aI3211
aI3576
aa(lp1765
a(lp1766
a(lp1767
a(lp1768
a(lp1769
a(lp1770
a(lp1771
a(lp1772
a(lp1773
I300
aI665
aI1030
aI1395
aI1760
aI2125
aI2490
aI2855
aI3220
aI3585
aa(lp1774
a(lp1775
a(lp1776
a(lp1777
a(lp1778
a(lp1779
a(lp1780
a(lp1781
a(lp1782
a(lp1783
a(lp1784
a(lp1785
a(lp1786
a(lp1787
a(lp1788
a(lp1789
a(lp1790
a(lp1791
a(lp1792
a(lp1793
a(lp1794
a(lp1795
a(lp1796
a(lp1797
a(lp1798
a(lp1799
a(lp1800
a(lp1801
a(lp1802
a(lp1803
a(lp1804
a(lp1805
a(lp1806
a(lp1807
a(lp1808
a(lp1809
a(lp1810
a(lp1811
a(lp1812
a(lp1813
a(lp1814
a(lp1815
a(lp1816
a(lp1817
a(lp1818
a(lp1819
a(lp1820
a(lp1821
a(lp1822
a(lp1823
a(lp1824
a(lp1825
a(lp1826
a(lp1827
a(lp1828
a(lp1829
a(lp1830
a(lp1831
a(lp1832
a(lp1833
a(lp1834
a(lp1835
a(lp1836
a(lp1837
a(lp1838
a(lp1839
a(lp1840
a(lp1841
a(lp1842
a(lp1843
a(lp1844
a(lp1845
a(lp1846
a(lp1847
a(lp1848
a(lp1849
a(lp1850
a(lp1851
a(lp1852
a(lp1853
a(lp1854
a(lp1855
a(lp1856
a(lp1857
a(lp1858
a(lp1859
a(lp1860
a(lp1861
a(lp1862
a(lp1863
a(lp1864
a(lp1865
a(lp1866
a(lp1867
a(lp1868
a(lp1869
a(lp1870
a(lp1871
a(lp1872
a(lp1873
a(lp1874
a(lp1875
a(lp1876
a(lp1877
a(lp1878
a(lp1879
a(lp1880
a(lp1881
a(lp1882
a(lp1883
a(lp1884
a(lp1885
a(lp1886
a(lp1887
a(lp1888
a(lp1889
a(lp1890
a(lp1891
a(lp1892
a(lp1893
a(lp1894
a(lp1895
a(lp1896
I58
aI423
aI788
aI1153
aI1518
aI1883
aI2248
aI2613
aI2978
aI3343
aa(lp1897
a(lp1898
a(lp1899
a(lp1900
a(lp1901
a(lp1902
a(lp1903
a(lp1904
a(lp1905
a(lp1906
a(lp1907
a(lp1908
a(lp1909
a(lp1910
a(lp1911
a(lp1912
a(lp1913
a(lp1914
I76
aI441
aI806
aI1171
aI1536
aI1901
aI2266
aI2631
aI2996
aI3361
aa(lp1915
a(lp1916
a(lp1917
a(lp1918
a(lp1919
a(lp1920
a(lp1921
I83
aI448
aI813
aI1178
aI1543
aI1908
aI2273
aI2638
aI3003
aI3368
aa(lp1922
a(lp1923
a(lp1924
a(lp1925
a(lp1926
a(lp1927
a(lp1928
a(lp1929
a(lp1930
a(lp1931
a(lp1932
a(lp1933
a(lp1934
a(lp1935
a(lp1936
a(lp1937
a(lp1938
a(lp1939
a(lp1940
a(lp1941
a(lp1942
a(lp1943
a(lp1944
a(lp1945
a(lp1946
I108
aI473
aI838
aI1203
aI1568
aI1933
aI2298
aI2663
aI3028
aI3393
aa(lp1947
a(lp1948
a(lp1949
a(lp1950
a(lp1951
a(lp1952
a(lp1953
a(lp1954
a(lp1955
a(lp1956
a(lp1957
a(lp1958
a(lp1959
a(lp1960
I122
aI487
aI852
aI1217
aI1582
aI1947
aI2312
aI2677
aI3042
aI3407
aa(lp1961
a(lp1962
I124
aI489
aI854
aI1219
aI1584
aI1949
aI2314
aI2679
aI3044
aI3409
aa(lp1963
a(lp1964
a(lp1965
a(lp1966
a(lp1967
a(lp1968
a(lp1969
a(lp1970
a(lp1971
a(lp1972
a(lp1973
a(lp1974
a(lp1975
a(lp1976
a(lp1977
a(lp1978
a(lp1979
a(lp1980
a(lp1981
a(lp1982
a(lp1983
a(lp1984
a(lp1985
a(lp1986
a(lp1987
a(lp1988
a(lp1989
a(lp1990
a(lp1991
a(lp1992
a(lp1993
a(lp1994
I156
aI521
aI886
aI1251
aI1616
aI1981
aI2346
aI2711
aI3076
aI3441
aa(lp1995
a(lp1996
a(lp1997
a(lp1998
a(lp1999
a(lp2000
a(lp2001
a(lp2002
a(lp2003
a(lp2004
a(lp2005
a(lp2006
a(lp2007
a(lp2008
I170
aI535
aI900
aI1265
aI1630
aI1995
aI2360
aI2725
aI3090
aI3455
aa(lp2009
a(lp2010
I172
aI537
aI902
aI1267
aI1632
aI1997
aI2362
aI2727
aI3092
aI3457
aa(lp2011
a(lp2012
a(lp2013
a(lp2014
a(lp2015
a(lp2016
a(lp2017
a(lp2018
a(lp2019
a(lp2020
a(lp2021
a(lp2022
a(lp2023
a(lp2024
a(lp2025
a(lp2026
a(lp2027
a(lp2028
a(lp2029
a(lp2030
a(lp2031
a(lp2032
a(lp2033
I195
aI560
aI925
aI1290
aI1655
aI2020
aI2385
aI2750
aI3115
aI3480
aa(lp2034
a(lp2035
a(lp2036
a(lp2037
a(lp2038
a(lp2039
a(lp2040
I202
aI567
aI932
aI1297
aI1662
aI2027
aI2392
aI2757
aI3122
aI3487
aa(lp2041
a(lp2042
a(lp2043
a(lp2044
a(lp2045
a(lp2046
a(lp2047
a(lp2048
a(lp2049
a(lp2050
a(lp2051
a(lp2052
a(lp2053
a(lp2054
a(lp2055
a(lp2056
a(lp2057
a(lp2058
a(lp2059
a(lp2060
a(lp2061
a(lp2062
a(lp2063
a(lp2064
a(lp2065
I227
aI592
aI957
aI1322
aI1687
aI2052
aI2417
aI2782
aI3147
aI3512
aa(lp2066
a(lp2067
a(lp2068
a(lp2069
a(lp2070
a(lp2071
a(lp2072
I234
aI599
aI964
aI1329
aI1694
aI2059
aI2424
aI2789
aI3154
aI3519
aa(lp2073
a(lp2074
I236
aI601
aI966
aI1331
aI1696
aI2061
aI2426
aI2791
aI3156
aI3521
aa(lp2075
a(lp2076
a(lp2077
a(lp2078
a(lp2079
a(lp2080
a(lp2081
I243
aI608
aI973
aI1338
aI1703
aI2068
aI2433
aI2798
aI3163
aI3528
aa(lp2082
a(lp2083
a(lp2084
a(lp2085
a(lp2086
a(lp2087
a(lp2088
a(lp2089
a(lp2090
a(lp2091
a(lp2092
a(lp2093
a(lp2094
a(lp2095
a(lp2096
a(lp2097
I259
aI624
aI989
aI1354
aI1719
aI2084
aI2449
aI2814
aI3179
aI3544
aa(lp2098
a(lp2099
a(lp2100
a(lp2101
a(lp2102
a(lp2103
a(lp2104
a(lp2105
a(lp2106
I268
aI633
aI998
aI1363
aI1728
aI2093
aI2458
aI2823
aI3188
aI3553
aa(lp2107
a(lp2108
a(lp2109
a(lp2110
a(lp2111
a(lp2112
a(lp2113
a(lp2114
a(lp2115
a(lp2116
a(lp2117
a(lp2118
a(lp2119
a(lp2120
a(lp2121
a(lp2122
a(lp2123
a(lp2124
a(lp2125
a(lp2126
a(lp2127
a(lp2128
a(lp2129
I291
aI656
aI1021
aI1386
aI1751
aI2116
aI2481
aI2846
aI3211
aI3576
aa(lp2130
a(lp2131
a(lp2132
a(lp2133
a(lp2134
a(lp2135
a(lp2136
a(lp2137
a(lp2138
I300
aI665
aI1030
aI1395
aI1760
aI2125
aI2490
aI2855
aI3220
aI3585
aa(lp2139
a(lp2140
a(lp2141
a(lp2142
a(lp2143
a(lp2144
a(lp2145
a(lp2146
a(lp2147
a(lp2148
a(lp2149
a(lp2150
a(lp2151
a(lp2152
a(lp2153
a(lp2154
a(lp2155
a(lp2156
a(lp2157
a(lp2158
a(lp2159
a(lp2160
a(lp2161
a(lp2162
a(lp2163
a(lp2164
a(lp2165
a(lp2166
a(lp2167
a(lp2168
a(lp2169
a(lp2170
a(lp2171
a(lp2172
a(lp2173
a(lp2174
a(lp2175
a(lp2176
a(lp2177
a(lp2178
a(lp2179
a(lp2180
a(lp2181
a(lp2182
a(lp2183
a(lp2184
a(lp2185
a(lp2186
a(lp2187
a(lp2188
a(lp2189
a(lp2190
a(lp2191
a(lp2192
a(lp2193
a(lp2194
a(lp2195
a(lp2196
a(lp2197
a(lp2198
a(lp2199
a(lp2200
a(lp2201
a(lp2202
a(lp2203
a(lp2204
a(lp2205
a(lp2206
a(lp2207
a(lp2208
a(lp2209
a(lp2210
a(lp2211
a(lp2212
a(lp2213
a(lp2214
a(lp2215
a(lp2216
a(lp2217
a(lp2218
a(lp2219
a(lp2220
a(lp2221
a(lp2222
a(lp2223
a(lp2224
a(lp2225
a(lp2226
a(lp2227
a(lp2228
a(lp2229
a(lp2230
a(lp2231
a(lp2232
a(lp2233
a(lp2234
a(lp2235
a(lp2236
a(lp2237
a(lp2238
a(lp2239
a(lp2240
a(lp2241
a(lp2242
a(lp2243
a(lp2244
a(lp2245
a(lp2246
a(lp2247
a(lp2248
a(lp2249
a(lp2250
a(lp2251
a(lp2252
a(lp2253
a(lp2254
a(lp2255
a(lp2256
a(lp2257
a(lp2258
a(lp2259
a(lp2260
a(lp2261
I58
aI423
aI788
aI1153
aI1518
aI1883
aI2248
aI2613
aI2978
aI3343
aa(lp2262
a(lp2263
a(lp2264
a(lp2265
a(lp2266
a(lp2267
a(lp2268
a(lp2269
a(lp2270
a(lp2271
a(lp2272
a(lp2273
a(lp2274
a(lp2275
a(lp2276
a(lp2277
a(lp2278
a(lp2279
I76
aI441
aI806
aI1171
aI1536
aI1901
aI2266
aI2631
aI2996
aI3361
aa(lp2280
a(lp2281
a(lp2282
a(lp2283
a(lp2284
a(lp2285
a(lp2286
I83
aI448
aI813
aI1178
aI1543
aI1908
aI2273
aI2638
aI3003
aI3368
aa(lp2287
a(lp2288
a(lp2289
a(lp2290
a(lp2291
a(lp2292
a(lp2293
a(lp2294
a(lp2295
a(lp2296
a(lp2297
a(lp2298
a(lp2299
a(lp2300
a(lp2301
a(lp2302
a(lp2303
a(lp2304
a(lp2305
a(lp2306
a(lp2307
a(lp2308
a(lp2309
a(lp2310
a(lp2311
I108
aI473
aI838
aI1203
aI1568
aI1933
aI2298
aI2663
aI3028
aI3393
aa(lp2312
a(lp2313
a(lp2314
a(lp2315
a(lp2316
a(lp2317
a(lp2318
a(lp2319
a(lp2320
a(lp2321
a(lp2322
a(lp2323
a(lp2324
a(lp2325
I122
aI487
aI852
aI1217
aI1582
aI1947
aI2312
aI2677
aI3042
aI3407
aa(lp2326
a(lp2327
I124
aI489
aI854
aI1219
aI1584
aI1949
aI2314
aI2679
aI3044
aI3409
aa(lp2328
a(lp2329
a(lp2330
a(lp2331
a(lp2332
a(lp2333
a(lp2334
a(lp2335
a(lp2336
a(lp2337
a(lp2338
a(lp2339
a(lp2340
a(lp2341
a(lp2342
a(lp2343
a(lp2344
a(lp2345
a(lp2346
a(lp2347
a(lp2348
a(lp2349
a(lp2350
a(lp2351
a(lp2352
a(lp2353
a(lp2354
a(lp2355
a(lp2356
a(lp2357
a(lp2358
a(lp2359
I156
aI521
aI886
aI1251
aI1616
aI1981
aI2346
aI2711
aI3076
aI3441
aa(lp2360
a(lp2361
a(lp2362
a(lp2363
a(lp2364
a(lp2365
a(lp2366
a(lp2367
a(lp2368
a(lp2369
a(lp2370
a(lp2371
a(lp2372
a(lp2373
I170
aI535
aI900
aI1265
aI1630
aI1995
aI2360
aI2725
aI3090
aI3455
aa(lp2374
a(lp2375
I172
aI537
aI902
aI1267
aI1632
aI1997
aI2362
aI2727
aI3092
aI3457
aa(lp2376
a(lp2377
a(lp2378
a(lp2379
a(lp2380
a(lp2381
a(lp2382
a(lp2383
a(lp2384
a(lp2385
a(lp2386
a(lp2387
a(lp2388
a(lp2389
a(lp2390
a(lp2391
a(lp2392
a(lp2393
a(lp2394
a(lp2395
a(lp2396
a(lp2397
a(lp2398
I195
aI560
aI925
aI1290
aI1655
aI2020
aI2385
aI2750
aI3115
aI3480
aa(lp2399
a(lp2400
a(lp2401
a(lp2402
a(lp2403
a(lp2404
a(lp2405
I202
aI567
aI932
aI1297
aI1662
aI2027
aI2392
aI2757
aI3122
aI3487
aa(lp2406
a(lp2407
a(lp2408
a(lp2409
a(lp2410
a(lp2411
a(lp2412
a(lp2413
a(lp2414
a(lp2415
a(lp2416
a(lp2417
a(lp2418
a(lp2419
a(lp2420
a(lp2421
a(lp2422
a(lp2423
a(lp2424
a(lp2425
a(lp2426
a(lp2427
a(lp2428
a(lp2429
a(lp2430
I227
aI592
aI957
aI1322
aI1687
aI2052
aI2417
aI2782
aI3147
aI3512
aa(lp2431
a(lp2432
a(lp2433
a(lp2434
a(lp2435
a(lp2436
a(lp2437
I234
aI599
aI964
aI1329
aI1694
aI2059
aI2424
aI2789
aI3154
aI3519
aa(lp2438
a(lp2439
I236
aI601
aI966
aI1331
aI1696
aI2061
aI2426
aI2791
aI3156
aI3521
aa(lp2440
a(lp2441
a(lp2442
a(lp2443
a(lp2444
a(lp2445
a(lp2446
I243
aI608
aI973
aI1338
aI1703
aI2068
aI2433
aI2798
aI3163
aI3528
aa(lp2447
a(lp2448
a(lp2449
a(lp2450
a(lp2451
a(lp2452
a(lp2453
a(lp2454
a(lp2455
a(lp2456
a(lp2457
a(lp2458
a(lp2459
a(lp2460
a(lp2461
a(lp2462
I259
aI624
aI989
aI1354
aI1719
aI2084
aI2449
aI2814
aI3179
aI3544
aa(lp2463
a(lp2464
a(lp2465
a(lp2466
a(lp2467
a(lp2468
a(lp2469
a(lp2470
a(lp2471
I268
aI633
aI998
aI1363
aI1728
aI2093
aI2458
aI2823
aI3188
aI3553
aa(lp2472
a(lp2473
a(lp2474
a(lp2475
a(lp2476
a(lp2477
a(lp2478
a(lp2479
a(lp2480
a(lp2481
a(lp2482
a(lp2483
a(lp2484
a(lp2485
a(lp2486
a(lp2487
a(lp2488
a(lp2489
a(lp2490
a(lp2491
a(lp2492
a(lp2493
a(lp2494
I291
aI656
aI1021
aI1386
aI1751
aI2116
aI2481
aI2846
aI3211
aI3576
aa(lp2495
a(lp2496
a(lp2497
a(lp2498
a(lp2499
a(lp2500
a(lp2501
a(lp2502
a(lp2503
I300
aI665
aI1030
aI1395
aI1760
aI2125
aI2490
aI2855
aI3220
aI3585
aa(lp2504
a(lp2505
a(lp2506
a(lp2507
a(lp2508
a(lp2509
a(lp2510
a(lp2511
a(lp2512
a(lp2513
a(lp2514
a(lp2515
a(lp2516
a(lp2517
a(lp2518
a(lp2519
a(lp2520
a(lp2521
a(lp2522
a(lp2523
a(lp2524
a(lp2525
a(lp2526
a(lp2527
a(lp2528
a(lp2529
a(lp2530
a(lp2531
a(lp2532
a(lp2533
a(lp2534
a(lp2535
a(lp2536
a(lp2537
a(lp2538
a(lp2539
a(lp2540
a(lp2541
a(lp2542
a(lp2543
a(lp2544
a(lp2545
a(lp2546
a(lp2547
a(lp2548
a(lp2549
a(lp2550
a(lp2551
a(lp2552
a(lp2553
a(lp2554
a(lp2555
a(lp2556
a(lp2557
a(lp2558
a(lp2559
a(lp2560
a(lp2561
a(lp2562
a(lp2563
a(lp2564
a(lp2565
a(lp2566
a(lp2567
a(lp2568
a(lp2569
a(lp2570
a(lp2571
a(lp2572
a(lp2573
a(lp2574
a(lp2575
a(lp2576
a(lp2577
a(lp2578
a(lp2579
a(lp2580
a(lp2581
a(lp2582
a(lp2583
a(lp2584
a(lp2585
a(lp2586
a(lp2587
a(lp2588
a(lp2589
a(lp2590
a(lp2591
a(lp2592
a(lp2593
a(lp2594
a(lp2595
a(lp2596
a(lp2597
a(lp2598
a(lp2599
a(lp2600
a(lp2601
a(lp2602
a(lp2603
a(lp2604
a(lp2605
a(lp2606
a(lp2607
a(lp2608
a(lp2609
a(lp2610
a(lp2611
a(lp2612
a(lp2613
a(lp2614
a(lp2615
a(lp2616
a(lp2617
a(lp2618
a(lp2619
a(lp2620
a(lp2621
a(lp2622
a(lp2623
a(lp2624
a(lp2625
a(lp2626
I58
aI423
aI788
aI1153
aI1518
aI1883
aI2248
aI2613
aI2978
aI3343
aa(lp2627
a(lp2628
a(lp2629
a(lp2630
a(lp2631
a(lp2632
a(lp2633
a(lp2634
a(lp2635
a(lp2636
a(lp2637
a(lp2638
a(lp2639
a(lp2640
a(lp2641
a(lp2642
a(lp2643
a(lp2644
I76
aI441
aI806
aI1171
aI1536
aI1901
aI2266
aI2631
aI2996
aI3361
aa(lp2645
a(lp2646
a(lp2647
a(lp2648
a(lp2649
a(lp2650
a(lp2651
I83
aI448
aI813
aI1178
aI1543
aI1908
aI2273
aI2638
aI3003
aI3368
aa(lp2652
a(lp2653
a(lp2654
a(lp2655
a(lp2656
a(lp2657
a(lp2658
a(lp2659
a(lp2660
a(lp2661
a(lp2662
a(lp2663
a(lp2664
a(lp2665
a(lp2666
a(lp2667
a(lp2668
a(lp2669
a(lp2670
a(lp2671
a(lp2672
a(lp2673
a(lp2674
a(lp2675
a(lp2676
I108
aI473
aI838
aI1203
aI1568
aI1933
aI2298
aI2663
aI3028
aI3393
aa(lp2677
a(lp2678
a(lp2679
a(lp2680
a(lp2681
a(lp2682
a(lp2683
a(lp2684
a(lp2685
a(lp2686
a(lp2687
a(lp2688
a(lp2689
a(lp2690
I122
aI487
aI852
aI1217
aI1582
aI1947
aI2312
aI2677
aI3042
aI3407
aa(lp2691
a(lp2692
I124
aI489
aI854
aI1219
aI1584
aI1949
aI2314
aI2679
aI3044
aI3409
aa(lp2693
a(lp2694
a(lp2695
a(lp2696
a(lp2697
a(lp2698
a(lp2699
a(lp2700
a(lp2701
a(lp2702
a(lp2703
a(lp2704
a(lp2705
a(lp2706
a(lp2707
a(lp2708
a(lp2709
a(lp2710
a(lp2711
a(lp2712
a(lp2713
a(lp2714
a(lp2715
a(lp2716
a(lp2717
a(lp2718
a(lp2719
a(lp2720
a(lp2721
a(lp2722
a(lp2723
a(lp2724
I156
aI521
aI886
aI1251
aI1616
aI1981
aI2346
aI2711
aI3076
aI3441
aa(lp2725
a(lp2726
a(lp2727
a(lp2728
a(lp2729
a(lp2730
a(lp2731
a(lp2732
a(lp2733
a(lp2734
a(lp2735
a(lp2736
a(lp2737
a(lp2738
I170
aI535
aI900
aI1265
aI1630
aI1995
aI2360
aI2725
aI3090
aI3455
aa(lp2739
a(lp2740
I172
aI537
aI902
aI1267
aI1632
aI1997
aI2362
aI2727
aI3092
aI3457
aa(lp2741
a(lp2742
a(lp2743
a(lp2744
a(lp2745
a(lp2746
a(lp2747
a(lp2748
a(lp2749
a(lp2750
a(lp2751
a(lp2752
a(lp2753
a(lp2754
a(lp2755
a(lp2756
a(lp2757
a(lp2758
a(lp2759
a(lp2760
a(lp2761
a(lp2762
a(lp2763
I195
aI560
aI925
aI1290
aI1655
aI2020
aI2385
aI2750
aI3115
aI3480
aa(lp2764
a(lp2765
a(lp2766
a(lp2767
a(lp2768
a(lp2769
a(lp2770
I202
aI567
aI932
aI1297
aI1662
aI2027
aI2392
aI2757
aI3122
aI3487
aa(lp2771
a(lp2772
a(lp2773
a(lp2774
a(lp2775
a(lp2776
a(lp2777
a(lp2778
a(lp2779
a(lp2780
a(lp2781
a(lp2782
a(lp2783
a(lp2784
a(lp2785
a(lp2786
a(lp2787
a(lp2788
a(lp2789
a(lp2790
a(lp2791
a(lp2792
a(lp2793
a(lp2794
a(lp2795
I227
aI592
aI957
aI1322
aI1687
aI2052
aI2417
aI2782
aI3147
aI3512
aa(lp2796
a(lp2797
a(lp2798
a(lp2799
a(lp2800
a(lp2801
a(lp2802
I234
aI599
aI964
aI1329
aI1694
aI2059
aI2424
aI2789
aI3154
aI3519
aa(lp2803
a(lp2804
I236
aI601
aI966
aI1331
aI1696
aI2061
aI2426
aI2791
aI3156
aI3521
aa(lp2805
a(lp2806
a(lp2807
a(lp2808
a(lp2809
a(lp2810
a(lp2811
I243
aI608
aI973
aI1338
aI1703
aI2068
aI2433
aI2798
aI3163
aI3528
aa(lp2812
a(lp2813
a(lp2814
a(lp2815
a(lp2816
a(lp2817
a(lp2818
a(lp2819
a(lp2820
a(lp2821
a(lp2822
a(lp2823
a(lp2824
a(lp2825
a(lp2826
a(lp2827
I259
aI624
aI989
aI1354
aI1719
aI2084
aI2449
aI2814
aI3179
aI3544
aa(lp2828
a(lp2829
a(lp2830
a(lp2831
a(lp2832
a(lp2833
a(lp2834
a(lp2835
a(lp2836
I268
aI633
aI998
aI1363
aI1728
aI2093
aI2458
aI2823
aI3188
aI3553
aa(lp2837
a(lp2838
a(lp2839
a(lp2840
a(lp2841
a(lp2842
a(lp2843
a(lp2844
a(lp2845
a(lp2846
a(lp2847
a(lp2848
a(lp2849
a(lp2850
a(lp2851
a(lp2852
a(lp2853
a(lp2854
a(lp2855
a(lp2856
a(lp2857
a(lp2858
a(lp2859
I291
aI656
aI1021
aI1386
aI1751
aI2116
aI2481
aI2846
aI3211
aI3576
aa(lp2860
a(lp2861
a(lp2862
a(lp2863
a(lp2864
a(lp2865
a(lp2866
a(lp2867
a(lp2868
I300
aI665
aI1030
aI1395
aI1760
aI2125
aI2490
aI2855
aI3220
aI3585
aa(lp2869
a(lp2870
a(lp2871
a(lp2872
a(lp2873
a(lp2874
a(lp2875
a(lp2876
a(lp2877
a(lp2878
a(lp2879
a(lp2880
a(lp2881
a(lp2882
a(lp2883
a(lp2884
a(lp2885
a(lp2886
a(lp2887
a(lp2888
a(lp2889
a(lp2890
a(lp2891
a(lp2892
a(lp2893
a(lp2894
a(lp2895
a(lp2896
a(lp2897
a(lp2898
a(lp2899
a(lp2900
a(lp2901
a(lp2902
a(lp2903
a(lp2904
a(lp2905
a(lp2906
a(lp2907
a(lp2908
a(lp2909
a(lp2910
a(lp2911
a(lp2912
a(lp2913
a(lp2914
a(lp2915
a(lp2916
a(lp2917
a(lp2918
a(lp2919
a(lp2920
a(lp2921
a(lp2922
a(lp2923
a(lp2924
a(lp2925
a(lp2926
a(lp2927
a(lp2928
a(lp2929
a(lp2930
a(lp2931
a(lp2932
a(lp2933
a(lp2934
a(lp2935
a(lp2936
a(lp2937
a(lp2938
a(lp2939
a(lp2940
a(lp2941
a(lp2942
a(lp2943
a(lp2944
a(lp2945
a(lp2946
a(lp2947
a(lp2948
a(lp2949
a(lp2950
a(lp2951
a(lp2952
a(lp2953
a(lp2954
a(lp2955
a(lp2956
a(lp2957
a(lp2958
a(lp2959
a(lp2960
a(lp2961
a(lp2962
a(lp2963
a(lp2964
a(lp2965
a(lp2966
a(lp2967
a(lp2968
a(lp2969
a(lp2970
a(lp2971
a(lp2972
a(lp2973
a(lp2974
a(lp2975
a(lp2976
a(lp2977
a(lp2978
a(lp2979
a(lp2980
a(lp2981
a(lp2982
a(lp2983
a(lp2984
a(lp2985
a(lp2986
a(lp2987
a(lp2988
a(lp2989
a(lp2990
a(lp2991
I58
aI423
aI788
aI1153
aI1518
aI1883
aI2248
aI2613
aI2978
aI3343
aa(lp2992
a(lp2993
a(lp2994
a(lp2995
a(lp2996
a(lp2997
a(lp2998
a(lp2999
a(lp3000
a(lp3001
a(lp3002
a(lp3003
a(lp3004
a(lp3005
a(lp3006
a(lp3007
a(lp3008
a(lp3009
I76
aI441
aI806
aI1171
aI1536
aI1901
aI2266
aI2631
aI2996
aI3361
aa(lp3010
a(lp3011
a(lp3012
a(lp3013
a(lp3014
a(lp3015
a(lp3016
I83
aI448
aI813
aI1178
aI1543
aI1908
aI2273
aI2638
aI3003
aI3368
aa(lp3017
a(lp3018
a(lp3019
a(lp3020
a(lp3021
a(lp3022
a(lp3023
a(lp3024
a(lp3025
a(lp3026
a(lp3027
a(lp3028
a(lp3029
a(lp3030
a(lp3031
a(lp3032
a(lp3033
a(lp3034
a(lp3035
a(lp3036
a(lp3037
a(lp3038
a(lp3039
a(lp3040
a(lp3041
I108
aI473
aI838
aI1203
aI1568
aI1933
aI2298
aI2663
aI3028
aI3393
aa(lp3042
a(lp3043
a(lp3044
a(lp3045
a(lp3046
a(lp3047
a(lp3048
a(lp3049
a(lp3050
a(lp3051
a(lp3052
a(lp3053
a(lp3054
a(lp3055
I122
aI487
aI852
aI1217
aI1582
aI1947
aI2312
aI2677
aI3042
aI3407
aa(lp3056
a(lp3057
I124
aI489
aI854
aI1219
aI1584
aI1949
aI2314
aI2679
aI3044
aI3409
aa(lp3058
a(lp3059
a(lp3060
a(lp3061
a(lp3062
a(lp3063
a(lp3064
a(lp3065
a(lp3066
a(lp3067
a(lp3068
a(lp3069
a(lp3070
a(lp3071
a(lp3072
a(lp3073
a(lp3074
a(lp3075
a(lp3076
a(lp3077
a(lp3078
a(lp3079
a(lp3080
a(lp3081
a(lp3082
a(lp3083
a(lp3084
a(lp3085
a(lp3086
a(lp3087
a(lp3088
a(lp3089
I156
aI521
aI886
aI1251
aI1616
aI1981
aI2346
aI2711
aI3076
aI3441
aa(lp3090
a(lp3091
a(lp3092
a(lp3093
a(lp3094
a(lp3095
a(lp3096
a(lp3097
a(lp3098
a(lp3099
a(lp3100
a(lp3101
a(lp3102
a(lp3103
I170
aI535
aI900
aI1265
aI1630
aI1995
aI2360
aI2725
aI3090
aI3455
aa(lp3104
a(lp3105
I172
aI537
aI902
aI1267
aI1632
aI1997
aI2362
aI2727
aI3092
aI3457
aa(lp3106
a(lp3107
a(lp3108
a(lp3109
a(lp3110
a(lp3111
a(lp3112
a(lp3113
a(lp3114
a(lp3115
a(lp3116
a(lp3117
a(lp3118
a(lp3119
a(lp3120
a(lp3121
a(lp3122
a(lp3123
a(lp3124
a(lp3125
a(lp3126
a(lp3127
a(lp3128
I195
aI560
aI925
aI1290
aI1655
aI2020
aI2385
aI2750
aI3115
aI3480
aa(lp3129
a(lp3130
a(lp3131
a(lp3132
a(lp3133
a(lp3134
a(lp3135
I202
aI567
aI932
aI1297
aI1662
aI2027
aI2392
aI2757
aI3122
aI3487
aa(lp3136
a(lp3137
a(lp3138
a(lp3139
a(lp3140
a(lp3141
a(lp3142
a(lp3143
a(lp3144
a(lp3145
a(lp3146
a(lp3147
a(lp3148
a(lp3149
a(lp3150
a(lp3151
a(lp3152
a(lp3153
a(lp3154
a(lp3155
a(lp3156
a(lp3157
a(lp3158
a(lp3159
a(lp3160
I227
aI592
aI957
aI1322
aI1687
aI2052
aI2417
aI2782
aI3147
aI3512
aa(lp3161
a(lp3162
a(lp3163
a(lp3164
a(lp3165
a(lp3166
a(lp3167
I234
aI599
aI964
aI1329
aI1694
aI2059
aI2424
aI2789
aI3154
aI3519
aa(lp3168
a(lp3169
I236
aI601
aI966
aI1331
aI1696
aI2061
aI2426
aI2791
aI3156
aI3521
aa(lp3170
a(lp3171
a(lp3172
a(lp3173
a(lp3174
a(lp3175
a(lp3176
I243
aI608
aI973
aI1338
aI1703
aI2068
aI2433
aI2798
aI3163
aI3528
aa(lp3177
a(lp3178
a(lp3179
a(lp3180
a(lp3181
a(lp3182
a(lp3183
a(lp3184
a(lp3185
a(lp3186
a(lp3187
a(lp3188
a(lp3189
a(lp3190
a(lp3191
a(lp3192
I259
aI624
aI989
aI1354
aI1719
aI2084
aI2449
aI2814
aI3179
aI3544
aa(lp3193
a(lp3194
a(lp3195
a(lp3196
a(lp3197
a(lp3198
a(lp3199
a(lp3200
a(lp3201
I268
aI633
aI998
aI1363
aI1728
aI2093
aI2458
aI2823
aI3188
aI3553
aa(lp3202
a(lp3203
a(lp3204
a(lp3205
a(lp3206
a(lp3207
a(lp3208
a(lp3209
a(lp3210
a(lp3211
a(lp3212
a(lp3213
a(lp3214
a(lp3215
a(lp3216
a(lp3217
a(lp3218
a(lp3219
a(lp3220
a(lp3221
a(lp3222
a(lp3223
a(lp3224
I291
aI656
aI1021
aI1386
aI1751
aI2116
aI2481
aI2846
aI3211
aI3576
aa(lp3225
a(lp3226
a(lp3227
a(lp3228
a(lp3229
a(lp3230
a(lp3231
a(lp3232
a(lp3233
I300
aI665
aI1030
aI1395
aI1760
aI2125
aI2490
aI2855
aI3220
aI3585
aa(lp3234
a(lp3235
a(lp3236
a(lp3237
a(lp3238
a(lp3239
a(lp3240
a(lp3241
a(lp3242
a(lp3243
a(lp3244
a(lp3245
a(lp3246
a(lp3247
a(lp3248
a(lp3249
a(lp3250
a(lp3251
a(lp3252
a(lp3253
a(lp3254
a(lp3255
a(lp3256
a(lp3257
a(lp3258
a(lp3259
a(lp3260
a(lp3261
a(lp3262
a(lp3263
a(lp3264
a(lp3265
a(lp3266
a(lp3267
a(lp3268
a(lp3269
a(lp3270
a(lp3271
a(lp3272
a(lp3273
a(lp3274
a(lp3275
a(lp3276
a(lp3277
a(lp3278
a(lp3279
a(lp3280
a(lp3281
a(lp3282
a(lp3283
a(lp3284
a(lp3285
a(lp3286
a(lp3287
a(lp3288
a(lp3289
a(lp3290
a(lp3291
a(lp3292
a(lp3293
a(lp3294
a(lp3295
a(lp3296
a(lp3297
a(lp3298
a(lp3299
a(lp3300
a(lp3301
a(lp3302
a(lp3303
a(lp3304
a(lp3305
a(lp3306
a(lp3307
a(lp3308
a(lp3309
a(lp3310
a(lp3311
a(lp3312
a(lp3313
a(lp3314
a(lp3315
a(lp3316
a(lp3317
a(lp3318
a(lp3319
a(lp3320
a(lp3321
a(lp3322
a(lp3323
a(lp3324
a(lp3325
a(lp3326
a(lp3327
a(lp3328
a(lp3329
a(lp3330
a(lp3331
a(lp3332
a(lp3333
a(lp3334
a(lp3335
a(lp3336
a(lp3337
a(lp3338
a(lp3339
a(lp3340
a(lp3341
a(lp3342
a(lp3343
a(lp3344
a(lp3345
a(lp3346
a(lp3347
a(lp3348
a(lp3349
a(lp3350
a(lp3351
a(lp3352
a(lp3353
a(lp3354
a(lp3355
a(lp3356
I58
aI423
aI788
aI1153
aI1518
aI1883
aI2248
aI2613
aI2978
aI3343
aa(lp3357
a(lp3358
a(lp3359
a(lp3360
a(lp3361
a(lp3362
a(lp3363
a(lp3364
a(lp3365
a(lp3366
a(lp3367
a(lp3368
a(lp3369
a(lp3370
a(lp3371
a(lp3372
a(lp3373
a(lp3374
I76
aI441
aI806
aI1171
aI1536
aI1901
aI2266
aI2631
aI2996
aI3361
aa(lp3375
a(lp3376
a(lp3377
a(lp3378
a(lp3379
a(lp3380
a(lp3381
I83
aI448
aI813
aI1178
aI1543
aI1908
aI2273
aI2638
aI3003
aI3368
aa(lp3382
a(lp3383
a(lp3384
a(lp3385
a(lp3386
a(lp3387
a(lp3388
a(lp3389
a(lp3390
a(lp3391
a(lp3392
a(lp3393
a(lp3394
a(lp3395
a(lp3396
a(lp3397
a(lp3398
a(lp3399
a(lp3400
a(lp3401
a(lp3402
a(lp3403
a(lp3404
a(lp3405
a(lp3406
I108
aI473
aI838
aI1203
aI1568
aI1933
aI2298
aI2663
aI3028
aI3393
aa(lp3407
a(lp3408
a(lp3409
a(lp3410
a(lp3411
a(lp3412
a(lp3413
a(lp3414
a(lp3415
a(lp3416
a(lp3417
a(lp3418
a(lp3419
a(lp3420
I122
aI487
aI852
aI1217
aI1582
aI1947
aI2312
aI2677
aI3042
aI3407
aa(lp3421
a(lp3422
I124
aI489
aI854
aI1219
aI1584
aI1949
aI2314
aI2679
aI3044
aI3409
aa(lp3423
a(lp3424
a(lp3425
a(lp3426
a(lp3427
a(lp3428
a(lp3429
a(lp3430
a(lp3431
a(lp3432
a(lp3433
a(lp3434
a(lp3435
a(lp3436
a(lp3437
a(lp3438
a(lp3439
a(lp3440
a(lp3441
a(lp3442
a(lp3443
a(lp3444
a(lp3445
a(lp3446
a(lp3447
a(lp3448
a(lp3449
a(lp3450
a(lp3451
a(lp3452
a(lp3453
a(lp3454
I156
aI521
aI886
aI1251
aI1616
aI1981
aI2346
aI2711
aI3076
aI3441
aa(lp3455
a(lp3456
a(lp3457
a(lp3458
a(lp3459
a(lp3460
a(lp3461
a(lp3462
a(lp3463
a(lp3464
a(lp3465
a(lp3466
a(lp3467
a(lp3468
I170
aI535
aI900
aI1265
aI1630
aI1995
aI2360
aI2725
aI3090
aI3455
aa(lp3469
a(lp3470
I172
aI537
aI902
aI1267
aI1632
aI1997
aI2362
aI2727
aI3092
aI3457
aa(lp3471
a(lp3472
a(lp3473
a(lp3474
a(lp3475
a(lp3476
a(lp3477
a(lp3478
a(lp3479
a(lp3480
a(lp3481
a(lp3482
a(lp3483
a(lp3484
a(lp3485
a(lp3486
a(lp3487
a(lp3488
a(lp3489
a(lp3490
a(lp3491
a(lp3492
a(lp3493
I195
aI560
aI925
aI1290
aI1655
aI2020
aI2385
aI2750
aI3115
aI3480
aa(lp3494
a(lp3495
a(lp3496
a(lp3497
a(lp3498
a(lp3499
a(lp3500
I202
aI567
aI932
aI1297
aI1662
aI2027
aI2392
aI2757
aI3122
aI3487
aa(lp3501
a(lp3502
a(lp3503
a(lp3504
a(lp3505
a(lp3506
a(lp3507
a(lp3508
a(lp3509
a(lp3510
a(lp3511
a(lp3512
a(lp3513
a(lp3514
a(lp3515
a(lp3516
a(lp3517
a(lp3518
a(lp3519
a(lp3520
a(lp3521
a(lp3522
a(lp3523
a(lp3524
a(lp3525
I227
aI592
aI957
aI1322
aI1687
aI2052
aI2417
aI2782
aI3147
aI3512
aa(lp3526
a(lp3527
a(lp3528
a(lp3529
a(lp3530
a(lp3531
a(lp3532
I234
aI599
aI964
aI1329
aI1694
aI2059
aI2424
aI2789
aI3154
aI3519
aa(lp3533
a(lp3534
I236
aI601
aI966
aI1331
aI1696
aI2061
aI2426
aI2791
aI3156
aI3521
aa(lp3535
a(lp3536
a(lp3537
a(lp3538
a(lp3539
a(lp3540
a(lp3541
I243
aI608
aI973
aI1338
aI1703
aI2068
aI2433
aI2798
aI3163
aI3528
aa(lp3542
a(lp3543
a(lp3544
a(lp3545
a(lp3546
a(lp3547
a(lp3548
a(lp3549
a(lp3550
a(lp3551
a(lp3552
a(lp3553
a(lp3554
a(lp3555
a(lp3556
a(lp3557
I259
aI624
aI989
aI1354
aI1719
aI2084
aI2449
aI2814
aI3179
aI3544
aa(lp3558
a(lp3559
a(lp3560
a(lp3561
a(lp3562
a(lp3563
a(lp3564
a(lp3565
a(lp3566
I268
aI633
aI998
aI1363
aI1728
aI2093
aI2458
aI2823
aI3188
aI3553
aa(lp3567
a(lp3568
a(lp3569
a(lp3570
a(lp3571
a(lp3572
a(lp3573
a(lp3574
a(lp3575
a(lp3576
a(lp3577
a(lp3578
a(lp3579
a(lp3580
a(lp3581
a(lp3582
a(lp3583
a(lp3584
a(lp3585
a(lp3586
a(lp3587
a(lp3588
a(lp3589
I291
aI656
aI1021
aI1386
aI1751
aI2116
aI2481
aI2846
aI3211
aI3576
aa(lp3590
a(lp3591
a(lp3592
a(lp3593
a(lp3594
a(lp3595
a(lp3596
a(lp3597
a(lp3598
I300
aI665
aI1030
aI1395
aI1760
aI2125
aI2490
aI2855
aI3220
aI3585
aa(lp3599
a(lp3600
a(lp3601
a(lp3602
a(lp3603
a(lp3604
a(lp3605
a(lp3606
a(lp3607
a(lp3608
a(lp3609
a(lp3610
a(lp3611
a(lp3612
a(lp3613
a(lp3614
a(lp3615
a(lp3616
a(lp3617
a(lp3618
a(lp3619
a(lp3620
a(lp3621
a(lp3622
a(lp3623
a(lp3624
a(lp3625
a(lp3626
a(lp3627
a(lp3628
a(lp3629
a(lp3630
a(lp3631
a(lp3632
a(lp3633
a(lp3634
a(lp3635
a(lp3636
a(lp3637
a(lp3638
a(lp3639
a(lp3640
a(lp3641
a(lp3642
a(lp3643
a(lp3644
a(lp3645
a(lp3646
a(lp3647
a(lp3648
a(lp3649
a(lp3650
a(lp3651
a(lp3652
a(lp3653
a(lp3654
a(lp3655
a(lp3656
a(lp3657
a(lp3658
a(lp3659
a(lp3660
a(lp3661
a(lp3662
atbsS'format'
p3663
S'lil'
p3664
sS'dtype'
p3665
g10
(S'f8'
I0
I1
tRp3666
(I3
S'<'
NNNI-1
I-1
I0
tbsS'_shape'
p3667
(I3650
I3650
tp3668
sS'maxprint'
p3669
I50
sS'data'
p3670
g7
(g8
(I0
tS'b'
tRp3671
(I1
(I3650
tg11
I00
(lp3672
(lp3673
a(lp3674
a(lp3675
a(lp3676
a(lp3677
a(lp3678
a(lp3679
a(lp3680
a(lp3681
a(lp3682
a(lp3683
a(lp3684
a(lp3685
a(lp3686
a(lp3687
a(lp3688
a(lp3689
a(lp3690
a(lp3691
a(lp3692
a(lp3693
a(lp3694
a(lp3695
a(lp3696
a(lp3697
a(lp3698
a(lp3699
a(lp3700
a(lp3701
a(lp3702
a(lp3703
a(lp3704
a(lp3705
a(lp3706
a(lp3707
a(lp3708
a(lp3709
a(lp3710
a(lp3711
a(lp3712
a(lp3713
a(lp3714
a(lp3715
a(lp3716
a(lp3717
a(lp3718
a(lp3719
a(lp3720
a(lp3721
a(lp3722
a(lp3723
a(lp3724
a(lp3725
a(lp3726
a(lp3727
a(lp3728
a(lp3729
a(lp3730
a(lp3731
F2907.246148708964
aF-1.5399393760162639
aF299.47504458505136
aF-49.807306368165882
aF-4.5274575199982792
aF-105.2842179660729
aF-244.83664304852937
aF-15.157077370986372
aF2352.7241026499723
aF277.2506164205879
aa(lp3732
a(lp3733
a(lp3734
a(lp3735
a(lp3736
a(lp3737
a(lp3738
a(lp3739
a(lp3740
a(lp3741
a(lp3742
a(lp3743
a(lp3744
a(lp3745
a(lp3746
a(lp3747
a(lp3748
a(lp3749
F2314.1310659724468
aF9.8754100008591195
aF204.93520729303327
aF12.93980851357901
aF69.26057132261576
aF145.82201828261532
aF66.692981448568389
aF17.499777626994728
aF1409.0082270712401
aF78.186645779965147
aa(lp3750
a(lp3751
a(lp3752
a(lp3753
a(lp3754
a(lp3755
a(lp3756
F2515.9079541481333
aF-13.258059539111855
aF744.0982273010377
aF-226.85169938085892
aF-81.219192793469119
aF564.24704553137417
aF-129.5029733228148
aF22.592996629100526
aF1343.3312943789133
aF154.91921203647507
aa(lp3757
a(lp3758
a(lp3759
a(lp3760
a(lp3761
a(lp3762
a(lp3763
a(lp3764
a(lp3765
a(lp3766
a(lp3767
a(lp3768
a(lp3769
a(lp3770
a(lp3771
a(lp3772
a(lp3773
a(lp3774
a(lp3775
a(lp3776
a(lp3777
a(lp3778
a(lp3779
a(lp3780
a(lp3781
F1873.2029062107358
aF-3.4434464168953127
aF73.731393968046177
aF83.980616238932271
aF-60.930102563361288
aF-135.47469563945924
aF93.942931300716737
aF-14.314782958990691
aF1161.3935100740491
aF89.813693193718791
aa(lp3782
a(lp3783
a(lp3784
a(lp3785
a(lp3786
a(lp3787
a(lp3788
a(lp3789
a(lp3790
a(lp3791
a(lp3792
a(lp3793
a(lp3794
a(lp3795
F2109.6203553838677
aF-27.03924337765784
aF411.65332334003324
aF228.37665767383442
aF-24.689394706456369
aF-308.20552012755797
aF-69.680908154623467
aF35.947768139976688
aF1022.7137750007387
aF6.1695615727330733
aa(lp3796
a(lp3797
F1650.0954416187597
aF-36.131434910657845
aF711.97026301206279
aF325.51658080137713
aF-118.66107598734743
aF-349.74183762415123
aF-92.683785624103621
aF55.213310190538323
aF530.02826234660461
aF-35.212993054756225
aa(lp3798
a(lp3799
a(lp3800
a(lp3801
a(lp3802
a(lp3803
a(lp3804
a(lp3805
a(lp3806
a(lp3807
a(lp3808
a(lp3809
a(lp3810
a(lp3811
a(lp3812
a(lp3813
a(lp3814
a(lp3815
a(lp3816
a(lp3817
a(lp3818
a(lp3819
a(lp3820
a(lp3821
a(lp3822
a(lp3823
a(lp3824
a(lp3825
a(lp3826
a(lp3827
a(lp3828
a(lp3829
F2017.0927243157166
aF-45.223478650768811
aF-110.77413688553861
aF5.8120321000387776
aF175.29346649780564
aF-324.25218989828863
aF-187.82602779765512
aF60.208267882444488
aF1274.5456217544415
aF204.56528631029869
aa(lp3830
a(lp3831
a(lp3832
a(lp3833
a(lp3834
a(lp3835
a(lp3836
a(lp3837
a(lp3838
a(lp3839
a(lp3840
a(lp3841
a(lp3842
a(lp3843
F1710.3479876823258
aF-13.044748925494787
aF407.93118500914716
aF534.07256359605526
aF-77.643974805141625
aF-485.03851814984955
aF-149.0374273771522
aF66.454893499212631
aF266.80901612508023
aF33.400635857105954
aa(lp3844
a(lp3845
F870.87774893745973
aF-25.190011498921194
aF-92.236679805068889
aF159.16075177813127
aF30.457734112587787
aF-81.008511898517099
aF-127.11378936103301
aF42.994628302039928
aF94.482016166352878
aF10.107412506954461
aa(lp3846
a(lp3847
a(lp3848
a(lp3849
a(lp3850
a(lp3851
a(lp3852
a(lp3853
a(lp3854
a(lp3855
a(lp3856
a(lp3857
a(lp3858
a(lp3859
a(lp3860
a(lp3861
a(lp3862
a(lp3863
a(lp3864
a(lp3865
a(lp3866
a(lp3867
a(lp3868
F1039.5129066864683
aF-8.1073238789031166
aF64.933098542496737
aF356.67382718429508
aF-63.045135334505176
aF-318.6234110330588
aF65.870787580024626
aF16.137974512275832
aF126.61522248436086
aF-40.842292037268635
aa(lp3869
a(lp3870
a(lp3871
a(lp3872
a(lp3873
a(lp3874
a(lp3875
F638.17356164008743
aF-13.72419404788161
aF138.18591639847
aF258.69277493484333
aF136.60639410773001
aF-158.39623017654958
aF28.070897428733588
aF2.0471048856052221
aF-386.99810431808146
aF-90.641592009887972
aa(lp3876
a(lp3877
a(lp3878
a(lp3879
a(lp3880
a(lp3881
a(lp3882
a(lp3883
a(lp3884
a(lp3885
a(lp3886
a(lp3887
a(lp3888
a(lp3889
a(lp3890
a(lp3891
a(lp3892
a(lp3893
a(lp3894
a(lp3895
a(lp3896
a(lp3897
a(lp3898
a(lp3899
a(lp3900
F1425.3381763751349
aF8.5146865558272111
aF-269.71862041591521
aF404.79537801729748
aF303.32576130831512
aF-257.71182379230595
aF-136.5051119250893
aF-54.764723245170899
aF-8.0772139199325466
aF-11.557712298326805
aa(lp3901
a(lp3902
a(lp3903
a(lp3904
a(lp3905
a(lp3906
a(lp3907
F1119.2162453710353
aF-1.8889181774284225
aF152.87951242726194
aF1380.8561043049394
aF-459.07171326575735
aF151.53413102098057
aF-53.302087366091655
aF31.627271113165989
aF69.667822089058973
aF-54.097934309993434
aa(lp3908
a(lp3909
F274.96749339661619
aF9.8602328080232837
aF-238.84664983597759
aF-1.4472291809397575
aF114.53638819602929
aF7.8353522781071661
aF-125.78589405620733
aF-72.15324586695715
aF-339.19811954774559
aF-46.170008261015028
aa(lp3910
a(lp3911
a(lp3912
a(lp3913
a(lp3914
a(lp3915
a(lp3916
F457.05756690495036
aF7.5544420496953535
aF-150.21351060795496
aF-148.14488764613998
aF126.75114220428441
aF7.9346193615492666
aF-175.41833443601718
aF-71.587963645924901
aF-251.61746819435393
aF-39.223628078843831
aa(lp3917
a(lp3918
a(lp3919
a(lp3920
a(lp3921
a(lp3922
a(lp3923
a(lp3924
a(lp3925
a(lp3926
a(lp3927
a(lp3928
a(lp3929
a(lp3930
a(lp3931
a(lp3932
F1001.3481894333154
aF-2.3469631571515492
aF440.15112514728116
aF753.20436323522699
aF-23.946690674847559
aF-235.56190278384292
aF-104.982698090339
aF14.476109910788182
aF233.61559442491853
aF19.080935587112435
aa(lp3933
a(lp3934
a(lp3935
a(lp3936
a(lp3937
a(lp3938
a(lp3939
a(lp3940
a(lp3941
F695.92728380030167
aF1.7653881911883218
aF295.17993880290305
aF520.01052637251632
aF27.606105845734419
aF-35.106030082943107
aF-85.516929004825215
aF-9.1071584051860555
aF149.07899057448049
aF-3.2489225532117416
aa(lp3942
a(lp3943
a(lp3944
a(lp3945
a(lp3946
a(lp3947
a(lp3948
a(lp3949
a(lp3950
a(lp3951
a(lp3952
a(lp3953
a(lp3954
a(lp3955
a(lp3956
a(lp3957
a(lp3958
a(lp3959
a(lp3960
a(lp3961
a(lp3962
a(lp3963
a(lp3964
F2233.7099494507129
aF-6.695438514725538
aF179.05898630488082
aF1683.0287705715818
aF-447.94516895763081
aF78.565386729678721
aF-155.44819689239375
aF62.22866488769796
aF1438.6015976697308
aF75.060782478431065
aa(lp3965
a(lp3966
a(lp3967
a(lp3968
a(lp3969
a(lp3970
a(lp3971
a(lp3972
a(lp3973
F2899.4043958618931
aF-3.5786257512882003
aF-112.1186841146482
aF2058.4488922281707
aF175.17113519716077
aF-527.7862300090419
aF-147.62464672912756
aF52.343310130709142
aF1551.5980763325388
aF87.692906447500718
aa(lp3974
a(lp3975
a(lp3976
a(lp3977
a(lp3978
a(lp3979
a(lp3980
a(lp3981
a(lp3982
a(lp3983
a(lp3984
a(lp3985
a(lp3986
a(lp3987
a(lp3988
a(lp3989
a(lp3990
a(lp3991
a(lp3992
a(lp3993
a(lp3994
a(lp3995
a(lp3996
a(lp3997
a(lp3998
a(lp3999
a(lp4000
a(lp4001
a(lp4002
a(lp4003
a(lp4004
a(lp4005
a(lp4006
a(lp4007
a(lp4008
a(lp4009
a(lp4010
a(lp4011
a(lp4012
a(lp4013
a(lp4014
a(lp4015
a(lp4016
a(lp4017
a(lp4018
a(lp4019
a(lp4020
a(lp4021
a(lp4022
a(lp4023
a(lp4024
a(lp4025
a(lp4026
a(lp4027
a(lp4028
a(lp4029
a(lp4030
a(lp4031
a(lp4032
a(lp4033
a(lp4034
a(lp4035
a(lp4036
a(lp4037
a(lp4038
a(lp4039
a(lp4040
a(lp4041
a(lp4042
a(lp4043
a(lp4044
a(lp4045
a(lp4046
a(lp4047
a(lp4048
a(lp4049
a(lp4050
a(lp4051
a(lp4052
a(lp4053
a(lp4054
a(lp4055
a(lp4056
a(lp4057
a(lp4058
a(lp4059
a(lp4060
a(lp4061
a(lp4062
a(lp4063
a(lp4064
a(lp4065
a(lp4066
a(lp4067
a(lp4068
a(lp4069
a(lp4070
a(lp4071
a(lp4072
a(lp4073
a(lp4074
a(lp4075
a(lp4076
a(lp4077
a(lp4078
a(lp4079
a(lp4080
a(lp4081
a(lp4082
a(lp4083
a(lp4084
a(lp4085
a(lp4086
a(lp4087
a(lp4088
a(lp4089
a(lp4090
a(lp4091
a(lp4092
a(lp4093
a(lp4094
a(lp4095
a(lp4096
F-1.6109263131780516
aF0.0023091542566966439
aF-0.16833746896427471
aF0.052826169827380198
aF0.028738908475212099
aF0.12640574836852991
aF0.10596130917139845
aF-0.0082387208166778692
aF-2.6723923379767811
aF-0.37516550144278682
aa(lp4097
a(lp4098
a(lp4099
a(lp4100
a(lp4101
a(lp4102
a(lp4103
a(lp4104
a(lp4105
a(lp4106
a(lp4107
a(lp4108
a(lp4109
a(lp4110
a(lp4111
a(lp4112
a(lp4113
a(lp4114
F9.8718792029828251
aF0.018750057062533187
aF5.2980687503811907
aF0.091881802166682291
aF-0.33556478706842086
aF1.4839230622065713
aF3.266719794670081
aF0.9104205278553934
aF33.476707150814633
aF3.8500346688508102
aa(lp4115
a(lp4116
a(lp4117
a(lp4118
a(lp4119
a(lp4120
a(lp4121
F-13.471613960480688
aF-0.70055358736276219
aF-0.085239262870295818
aF0.064898525442558253
aF-0.20283049129155017
aF2.0298927649875509
aF0.94649854898154473
aF0.17344687075482312
aF1.0566077485174574
aF0.45152978578322234
aa(lp4122
a(lp4123
a(lp4124
a(lp4125
a(lp4126
a(lp4127
a(lp4128
a(lp4129
a(lp4130
a(lp4131
a(lp4132
a(lp4133
a(lp4134
a(lp4135
a(lp4136
a(lp4137
a(lp4138
a(lp4139
a(lp4140
a(lp4141
a(lp4142
a(lp4143
a(lp4144
a(lp4145
a(lp4146
F-3.3711558211635406
aF0.012824291628632523
aF0.10495296853818559
aF-0.078391565461188861
aF0.12894677547947708
aF0.1693498008492611
aF-1.1050423576186574
aF-0.034255209779843199
aF-6.117574780084567
aF-0.79603672542560844
aa(lp4147
a(lp4148
a(lp4149
a(lp4150
a(lp4151
a(lp4152
a(lp4153
a(lp4154
a(lp4155
a(lp4156
a(lp4157
a(lp4158
a(lp4159
a(lp4160
F-27.004221792026328
aF1.2654950420909472
aF-16.458357476878405
aF-5.0581388411075068
aF0.6330342472438133
aF11.530420573890865
aF-4.9615712871542428
aF-1.6927703683222717
aF-65.771087198740474
aF-6.641986116662224
aa(lp4161
a(lp4162
F-36.220861865388088
aF0.39123131401197497
aF-8.0901821242207461
aF-5.7413132026340463
aF1.1101334962404508
aF11.270053512646427
aF-3.0914598880826816
aF-1.8656169942232737
aF-64.599625915207071
aF-6.9781657785483731
aa(lp4163
a(lp4164
a(lp4165
a(lp4166
a(lp4167
a(lp4168
a(lp4169
a(lp4170
a(lp4171
a(lp4172
a(lp4173
a(lp4174
a(lp4175
a(lp4176
a(lp4177
a(lp4178
a(lp4179
a(lp4180
a(lp4181
a(lp4182
a(lp4183
a(lp4184
a(lp4185
a(lp4186
a(lp4187
a(lp4188
a(lp4189
a(lp4190
a(lp4191
a(lp4192
a(lp4193
a(lp4194
F-45.188432618026297
aF1.9879198953631771
aF-0.92731518019917303
aF-1.2199464327622422
aF-3.7397245522541311
aF12.424281270462245
aF2.2339149641226186
aF-3.2450800047101325
aF-64.741037264504087
aF-11.299056423830223
aa(lp4195
a(lp4196
a(lp4197
a(lp4198
a(lp4199
a(lp4200
a(lp4201
a(lp4202
a(lp4203
a(lp4204
a(lp4205
a(lp4206
a(lp4207
a(lp4208
F-12.934196980118884
aF0.074831874030678591
aF-2.4074766402648606
aF-2.3855761810409604
aF0.58610341024945001
aF3.7902692984204123
aF0.16007901670889169
aF-0.44671764065640218
aF-6.8534391939323314
aF-1.2335005017405365
aa(lp4209
a(lp4210
F-25.184576646353207
aF1.5368094352652406
aF-1.3589949610093299
aF-9.934710298864502
aF1.7118657602566145
aF9.3505789777736936
aF1.2129240722913437
aF-5.4423122897162557
aF-51.153398894498991
aF-9.2604046653121941
aa(lp4211
a(lp4212
a(lp4213
a(lp4214
a(lp4215
a(lp4216
a(lp4217
a(lp4218
a(lp4219
a(lp4220
a(lp4221
a(lp4222
a(lp4223
a(lp4224
a(lp4225
a(lp4226
a(lp4227
a(lp4228
a(lp4229
a(lp4230
a(lp4231
a(lp4232
a(lp4233
F-8.1459974987652117
aF0.28075624047829706
aF-4.5084345590140629
aF-9.4292163854703404
aF4.6008003184994095
aF1.009696992682052
aF-4.452021795664507
aF-1.305321783995339
aF-9.7049836389473398
aF-0.76621429201395586
aa(lp4234
a(lp4235
a(lp4236
a(lp4237
a(lp4238
a(lp4239
a(lp4240
F-13.804107545922761
aF-0.29351174823943893
aF-11.848029490835188
aF-7.2663301597941654
aF2.0645291698428991
aF5.8575133188298878
aF-5.9092028159568599
aF-1.2932898307838059
aF-5.5732399140140387
aF0.018422063874368177
aa(lp4241
a(lp4242
a(lp4243
a(lp4244
a(lp4245
a(lp4246
a(lp4247
a(lp4248
a(lp4249
a(lp4250
a(lp4251
a(lp4252
a(lp4253
a(lp4254
a(lp4255
a(lp4256
a(lp4257
a(lp4258
a(lp4259
a(lp4260
a(lp4261
a(lp4262
a(lp4263
a(lp4264
a(lp4265
F8.567728726482926
aF0.12973486729350725
aF-7.7703633971637487
aF-7.5813449962325308
aF3.7393626639570243
aF0.78962851812747203
aF-2.6661771679314938
aF-2.0864749705751251
aF-2.949709831945313
aF0.39988388156331212
aa(lp4266
a(lp4267
a(lp4268
a(lp4269
a(lp4270
a(lp4271
a(lp4272
F-1.9624195046752391
aF0.010899800506614099
aF-0.5823426157958167
aF-4.0285733610145869
aF2.0388898416823231
aF-0.098466938769359302
aF-1.042847082299847
aF-0.26217536058803503
aF-0.90351101322827532
aF0.0088319879187892525
aa(lp4273
a(lp4274
F10.004111583583608
aF0.30280968843499068
aF-9.1651950029358886
aF-45.312753771398206
aF17.673296337505917
aF14.497070965902026
aF-24.147518651318478
aF-5.3277902090087537
aF-8.5710343711298265
aF-1.0305518660658208
aa(lp4275
a(lp4276
a(lp4277
a(lp4278
a(lp4279
a(lp4280
a(lp4281
F7.5428851831205179
aF0.13929871700568697
aF-5.2719992593708298
aF-13.875278337405206
aF3.4288388794934122
aF0.70524408535277416
aF-2.8940459584347877
aF-2.422066269769374
aF-3.2569517971481332
aF-0.59805385088651519
aa(lp4282
a(lp4283
a(lp4284
a(lp4285
a(lp4286
a(lp4287
a(lp4288
a(lp4289
a(lp4290
a(lp4291
a(lp4292
a(lp4293
a(lp4294
a(lp4295
a(lp4296
a(lp4297
F-2.2938863114552177
aF0.056739599130217755
aF-5.8505526867591584
aF-6.5029385709625132
aF1.2749217292995496
aF2.384183470094392
aF-1.7267006241494798
aF-0.67396787040152617
aF-4.9866668072606757
aF-0.72021222596863055
aa(lp4298
a(lp4299
a(lp4300
a(lp4301
a(lp4302
a(lp4303
a(lp4304
a(lp4305
a(lp4306
F1.7768074567214853
aF2.3829999085123177
aF-22.108101283002668
aF-39.758371572773399
aF8.4535213051850633
aF2.9169511694959738
aF-5.547873982436613
aF-4.7508669887008637
aF-36.490234744945838
aF-5.0565411191527687
aa(lp4307
a(lp4308
a(lp4309
a(lp4310
a(lp4311
a(lp4312
a(lp4313
a(lp4314
a(lp4315
a(lp4316
a(lp4317
a(lp4318
a(lp4319
a(lp4320
a(lp4321
a(lp4322
a(lp4323
a(lp4324
a(lp4325
a(lp4326
a(lp4327
a(lp4328
a(lp4329
F-6.718973066810463
aF0.017708623456513806
aF-0.63312489695377394
aF-3.392020864190215
aF1.0963573493505407
aF-0.88073314197245622
aF0.50410304819337171
aF-0.23903089507726349
aF-6.9056873774897554
aF-0.72215476931702938
aa(lp4330
a(lp4331
a(lp4332
a(lp4333
a(lp4334
a(lp4335
a(lp4336
a(lp4337
a(lp4338
F-3.4841090568171751
aF0.0067121502800304711
aF0.21376486691870866
aF-2.8344673719260527
aF-0.10639549796742642
aF0.63335421074395271
aF0.20666691968873607
aF-0.15604772474198114
aF-4.0766042319617668
aF-0.43644488023630856
aa(lp4339
a(lp4340
a(lp4341
a(lp4342
a(lp4343
a(lp4344
a(lp4345
a(lp4346
a(lp4347
a(lp4348
a(lp4349
a(lp4350
a(lp4351
a(lp4352
a(lp4353
a(lp4354
a(lp4355
a(lp4356
a(lp4357
a(lp4358
a(lp4359
a(lp4360
a(lp4361
a(lp4362
a(lp4363
a(lp4364
a(lp4365
a(lp4366
a(lp4367
a(lp4368
a(lp4369
a(lp4370
a(lp4371
a(lp4372
a(lp4373
a(lp4374
a(lp4375
a(lp4376
a(lp4377
a(lp4378
a(lp4379
a(lp4380
a(lp4381
a(lp4382
a(lp4383
a(lp4384
a(lp4385
a(lp4386
a(lp4387
a(lp4388
a(lp4389
a(lp4390
a(lp4391
a(lp4392
a(lp4393
a(lp4394
a(lp4395
a(lp4396
a(lp4397
a(lp4398
a(lp4399
a(lp4400
a(lp4401
a(lp4402
a(lp4403
a(lp4404
a(lp4405
a(lp4406
a(lp4407
a(lp4408
a(lp4409
a(lp4410
a(lp4411
a(lp4412
a(lp4413
a(lp4414
a(lp4415
a(lp4416
a(lp4417
a(lp4418
a(lp4419
a(lp4420
a(lp4421
a(lp4422
a(lp4423
a(lp4424
a(lp4425
a(lp4426
a(lp4427
a(lp4428
a(lp4429
a(lp4430
a(lp4431
a(lp4432
a(lp4433
a(lp4434
a(lp4435
a(lp4436
a(lp4437
a(lp4438
a(lp4439
a(lp4440
a(lp4441
a(lp4442
a(lp4443
a(lp4444
a(lp4445
a(lp4446
a(lp4447
a(lp4448
a(lp4449
a(lp4450
a(lp4451
a(lp4452
a(lp4453
a(lp4454
a(lp4455
a(lp4456
a(lp4457
a(lp4458
a(lp4459
a(lp4460
a(lp4461
F299.61127321342929
aF-0.16096048938152308
aF27.345851272286836
aF-9.5732561433692354
aF-3.2274375172391956
aF-2.4587810898424323
aF-22.993995152376101
aF-1.5328385671864453
aF273.30919358803385
aF33.297308021928984
aa(lp4462
a(lp4463
a(lp4464
a(lp4465
a(lp4466
a(lp4467
a(lp4468
a(lp4469
a(lp4470
a(lp4471
a(lp4472
a(lp4473
a(lp4474
a(lp4475
a(lp4476
a(lp4477
a(lp4478
a(lp4479
F204.89416403535188
aF5.2930332117284706
aF85.052571563437596
aF3.1880027506758779
aF-3.4322725994684333
aF30.358859604007193
aF42.142316303284133
aF12.324762188598015
aF483.71702234817349
aF48.084318038377205
aa(lp4480
a(lp4481
a(lp4482
a(lp4483
a(lp4484
a(lp4485
a(lp4486
F743.9409188236823
aF0.03844178309009294
aF283.18535072457962
aF-48.375598282746068
aF0.16080292652986827
aF172.92718865746792
aF-58.41100119141629
aF15.093297633939073
aF919.4069193085852
aF111.73971046218867
aa(lp4487
a(lp4488
a(lp4489
a(lp4490
a(lp4491
a(lp4492
a(lp4493
a(lp4494
a(lp4495
a(lp4496
a(lp4497
a(lp4498
a(lp4499
a(lp4500
a(lp4501
a(lp4502
a(lp4503
a(lp4504
a(lp4505
a(lp4506
a(lp4507
a(lp4508
a(lp4509
a(lp4510
a(lp4511
F73.744840634049069
aF0.10626282076486859
aF-29.182190885990167
aF25.783704105108995
aF21.160441709966449
aF48.70371732579315
aF-19.780573490280062
aF-0.58452722662138967
aF-62.634607322920033
aF-4.0209852780748179
aa(lp4512
a(lp4513
a(lp4514
a(lp4515
a(lp4516
a(lp4517
a(lp4518
a(lp4519
a(lp4520
a(lp4521
a(lp4522
a(lp4523
a(lp4524
a(lp4525
F411.63210013905882
aF-16.486796283743388
aF311.02656308235055
aF68.223960170143982
aF-12.902667378966726
aF-126.97073259460012
aF7.4446376174819306
aF20.877839546074028
aF814.77725757395092
aF83.756524560385515
aa(lp4526
a(lp4527
F711.8958095020389
aF-7.9701891309014172
aF402.8632162089707
aF79.049672763176204
aF-21.879290557080822
aF-161.51388280150059
aF-144.52969736566956
aF22.454861436926876
aF843.64793622171419
aF91.637264176824829
aa(lp4528
a(lp4529
a(lp4530
a(lp4531
a(lp4532
a(lp4533
a(lp4534
a(lp4535
a(lp4536
a(lp4537
a(lp4538
a(lp4539
a(lp4540
a(lp4541
a(lp4542
a(lp4543
a(lp4544
a(lp4545
a(lp4546
a(lp4547
a(lp4548
a(lp4549
a(lp4550
a(lp4551
a(lp4552
a(lp4553
a(lp4554
a(lp4555
a(lp4556
a(lp4557
a(lp4558
a(lp4559
F-110.75992230047405
aF-0.92499412573943118
aF16.301496685855454
aF14.266993098033254
aF-5.3808737021654451
aF34.187822350872921
aF14.529377345695593
aF3.0563285235984949
aF29.032295678632636
aF10.333658728711725
aa(lp4560
a(lp4561
a(lp4562
a(lp4563
a(lp4564
a(lp4565
a(lp4566
a(lp4567
a(lp4568
a(lp4569
a(lp4570
a(lp4571
a(lp4572
a(lp4573
F407.78210461667186
aF-2.440350499455235
aF101.45260631588826
aF66.203133997078112
aF-24.827050992826116
aF-171.84302123496309
aF-22.276097411122464
aF17.127787543813611
aF228.85046746523585
aF46.913966400552454
aa(lp4574
a(lp4575
F-92.191323730617114
aF-1.3617095895313014
aF15.762126714946589
aF4.6014335453037347
aF-9.7171116486549636
aF38.007100311432396
aF23.023406381383893
aF4.8843777911145025
aF37.276310749234653
aF12.274243754717418
aa(lp4576
a(lp4577
a(lp4578
a(lp4579
a(lp4580
a(lp4581
a(lp4582
a(lp4583
a(lp4584
a(lp4585
a(lp4586
a(lp4587
a(lp4588
a(lp4589
a(lp4590
a(lp4591
a(lp4592
a(lp4593
a(lp4594
a(lp4595
a(lp4596
a(lp4597
a(lp4598
F64.85939252343087
aF-4.4670878551755777
aF61.642302107145497
aF127.5933170674648
aF-54.927894233003371
aF113.4381697909248
aF61.378884730345362
aF16.058974061650133
aF129.71435978670343
aF9.4664549976641865
aa(lp4599
a(lp4600
a(lp4601
a(lp4602
a(lp4603
a(lp4604
a(lp4605
F138.2954323503327
aF-11.755150808312465
aF291.20139544147605
aF186.5770911990694
aF-42.323532056798285
aF-105.53656295542169
aF20.273625978006748
aF30.066830447594839
aF145.45141340249756
aF12.283595651751966
aa(lp4606
a(lp4607
a(lp4608
a(lp4609
a(lp4610
a(lp4611
a(lp4612
a(lp4613
a(lp4614
a(lp4615
a(lp4616
a(lp4617
a(lp4618
a(lp4619
a(lp4620
a(lp4621
a(lp4622
a(lp4623
a(lp4624
a(lp4625
a(lp4626
a(lp4627
a(lp4628
a(lp4629
a(lp4630
F-269.52143343805801
aF-7.5671692911782884
aF517.47164775406418
aF622.19479275427148
aF-204.88438678967213
aF-67.079699306304974
aF152.83454501968663
aF135.02254034847283
aF164.3417974150907
aF-39.161584197699995
aa(lp4631
a(lp4632
a(lp4633
a(lp4634
a(lp4635
a(lp4636
a(lp4637
F152.86585410834164
aF-0.54883111388903671
aF43.119660997348319
aF240.27691116756955
aF-112.67782893398248
aF32.115222747819416
aF17.965335619152256
aF12.2215919162727
aF41.890294522062277
aF-3.4865149878271495
aa(lp4638
a(lp4639
F-238.64525999783837
aF-9.0447933587256557
aF115.79949870110795
aF255.69774351197339
aF-143.73237391396287
aF-99.64914937654612
aF190.13303642623214
aF50.807049234435908
aF71.736355522489248
aF10.138469974663167
aa(lp4640
a(lp4641
a(lp4642
a(lp4643
a(lp4644
a(lp4645
a(lp4646
F-150.24101340799234
aF-5.2717004095370612
aF115.36017865410031
aF359.22069532290379
aF-69.034866001516093
aF-26.037893086083841
aF28.499619020294631
aF52.021455942963257
aF71.629019871011224
aF12.53868173733963
aa(lp4647
a(lp4648
a(lp4649
a(lp4650
a(lp4651
a(lp4652
a(lp4653
a(lp4654
a(lp4655
a(lp4656
a(lp4657
a(lp4658
a(lp4659
a(lp4660
a(lp4661
a(lp4662
F440.12718163344289
aF-5.9374901439923633
aF635.74827713352988
aF765.00677543833717
aF-128.68551344524803
aF-297.03746022846644
aF156.34206214087953
aF67.834419681389591
aF515.2963712617975
aF72.76851157200781
aa(lp4663
a(lp4664
a(lp4665
a(lp4666
a(lp4667
a(lp4668
a(lp4669
a(lp4670
a(lp4671
F295.23164357669884
aF-22.104073593709472
aF388.04272577408483
aF842.73547855673314
aF-126.25446856873168
aF-45.856741337502172
aF16.78488743550588
aF65.927391545983483
aF502.78781813517526
aF61.879944723841618
aa(lp4672
a(lp4673
a(lp4674
a(lp4675
a(lp4676
a(lp4677
a(lp4678
a(lp4679
a(lp4680
a(lp4681
a(lp4682
a(lp4683
a(lp4684
a(lp4685
a(lp4686
a(lp4687
a(lp4688
a(lp4689
a(lp4690
a(lp4691
a(lp4692
a(lp4693
a(lp4694
F179.10142702248777
aF-0.61157550135249039
aF23.973895935114342
aF102.00679874117213
aF-34.334347276399058
aF14.597495834323126
aF-19.361553071917115
aF8.5948592243312305
aF255.93964245729239
aF27.985349504433543
aa(lp4695
a(lp4696
a(lp4697
a(lp4698
a(lp4699
a(lp4700
a(lp4701
a(lp4702
a(lp4703
F-112.12708947994088
aF0.22158235246649838
aF9.0100639393853044
aF-114.16742462522222
aF-3.7300253552530194
aF42.209779094193323
aF6.0768241549880031
aF-6.0324717665594108
aF-154.84987558878061
aF-16.22686651714389
aa(lp4704
a(lp4705
a(lp4706
a(lp4707
a(lp4708
a(lp4709
a(lp4710
a(lp4711
a(lp4712
a(lp4713
a(lp4714
a(lp4715
a(lp4716
a(lp4717
a(lp4718
a(lp4719
a(lp4720
a(lp4721
a(lp4722
a(lp4723
a(lp4724
a(lp4725
a(lp4726
a(lp4727
a(lp4728
a(lp4729
a(lp4730
a(lp4731
a(lp4732
a(lp4733
a(lp4734
a(lp4735
a(lp4736
a(lp4737
a(lp4738
a(lp4739
a(lp4740
a(lp4741
a(lp4742
a(lp4743
a(lp4744
a(lp4745
a(lp4746
a(lp4747
a(lp4748
a(lp4749
a(lp4750
a(lp4751
a(lp4752
a(lp4753
a(lp4754
a(lp4755
a(lp4756
a(lp4757
a(lp4758
a(lp4759
a(lp4760
a(lp4761
a(lp4762
a(lp4763
a(lp4764
a(lp4765
a(lp4766
a(lp4767
a(lp4768
a(lp4769
a(lp4770
a(lp4771
a(lp4772
a(lp4773
a(lp4774
a(lp4775
a(lp4776
a(lp4777
a(lp4778
a(lp4779
a(lp4780
a(lp4781
a(lp4782
a(lp4783
a(lp4784
a(lp4785
a(lp4786
a(lp4787
a(lp4788
a(lp4789
a(lp4790
a(lp4791
a(lp4792
a(lp4793
a(lp4794
a(lp4795
a(lp4796
a(lp4797
a(lp4798
a(lp4799
a(lp4800
a(lp4801
a(lp4802
a(lp4803
a(lp4804
a(lp4805
a(lp4806
a(lp4807
a(lp4808
a(lp4809
a(lp4810
a(lp4811
a(lp4812
a(lp4813
a(lp4814
a(lp4815
a(lp4816
a(lp4817
a(lp4818
a(lp4819
a(lp4820
a(lp4821
a(lp4822
a(lp4823
a(lp4824
a(lp4825
a(lp4826
F-49.840369609199797
aF0.049756643250020716
aF-9.5741354400047385
aF7.1821964375828884
aF-1.2272328042683966
aF17.923501793859486
aF0.65841065932659149
aF0.1587959097548719
aF-110.12749245864484
aF-14.283355209698811
aa(lp4827
a(lp4828
a(lp4829
a(lp4830
a(lp4831
a(lp4832
a(lp4833
a(lp4834
a(lp4835
a(lp4836
a(lp4837
a(lp4838
a(lp4839
a(lp4840
a(lp4841
a(lp4842
a(lp4843
a(lp4844
F12.893567039040654
aF0.090817434128531715
aF3.1733056710114838
aF5.549261694604013
aF-0.2290379191860481
aF5.9347831676825891
aF-2.9760512582077681
aF-0.61077510826734738
aF12.868878079830282
aF1.3817396948834215
aa(lp4845
a(lp4846
a(lp4847
a(lp4848
a(lp4849
a(lp4850
a(lp4851
F-227.0418994143597
aF0.054363624713005265
aF-48.471330593713446
aF149.51996067935625
aF4.2206140804523784
aF-189.08500809544648
aF13.662977949024935
aF-7.5225438322945593
aF-105.63400500984699
aF-19.20742782601792
aa(lp4852
a(lp4853
a(lp4854
a(lp4855
a(lp4856
a(lp4857
a(lp4858
a(lp4859
a(lp4860
a(lp4861
a(lp4862
a(lp4863
a(lp4864
a(lp4865
a(lp4866
a(lp4867
a(lp4868
a(lp4869
a(lp4870
a(lp4871
a(lp4872
a(lp4873
a(lp4874
a(lp4875
a(lp4876
F84.011117662541324
aF-0.079451867307511748
aF25.785153967561314
aF-89.797783209277782
aF4.1773511760823112
aF6.0551827552046689
aF-22.145242128956966
aF-1.0301986375083061
aF29.60706675381175
aF1.7054938350469229
aa(lp4877
a(lp4878
a(lp4879
a(lp4880
a(lp4881
a(lp4882
a(lp4883
a(lp4884
a(lp4885
a(lp4886
a(lp4887
a(lp4888
a(lp4889
a(lp4890
F228.3797697621992
aF-5.0675060592197951
aF68.245652951048896
aF29.807325763187009
aF2.6526408625215936
aF-55.892323480577488
aF11.962664014930624
aF6.5315997055392927
aF209.87888174062164
aF13.350645389209603
aa(lp4891
a(lp4892
F325.49640422985249
aF-5.7098709760339261
aF79.033726407828908
aF-285.01878688302895
aF91.698185755717532
aF-78.836542272142651
aF-83.004978534972906
aF-1.8439635596223525
aF222.81509650667886
aF24.896750261405032
aa(lp4893
a(lp4894
a(lp4895
a(lp4896
a(lp4897
a(lp4898
a(lp4899
a(lp4900
a(lp4901
a(lp4902
a(lp4903
a(lp4904
a(lp4905
a(lp4906
a(lp4907
a(lp4908
a(lp4909
a(lp4910
a(lp4911
a(lp4912
a(lp4913
a(lp4914
a(lp4915
a(lp4916
a(lp4917
a(lp4918
a(lp4919
a(lp4920
a(lp4921
a(lp4922
a(lp4923
a(lp4924
F5.8767450017427336
aF-1.2209582678224251
aF14.265020809034468
aF-61.927636352265836
aF3.8336732011146069
aF14.466338371654786
aF-11.688380441299273
aF-2.6918991702373773
aF21.27775675653254
aF4.0542376122942869
aa(lp4925
a(lp4926
a(lp4927
a(lp4928
a(lp4929
a(lp4930
a(lp4931
a(lp4932
a(lp4933
a(lp4934
a(lp4935
a(lp4936
a(lp4937
a(lp4938
F534.04831703574018
aF-2.4128226527864172
aF66.234689199973218
aF-220.19926291250158
aF13.648386953946101
aF-71.564289783054846
aF-20.96366955584017
aF10.910353864801436
aF165.15983105591658
aF31.56079344535101
aa(lp4939
a(lp4940
F159.18350406707305
aF-9.9333504977039411
aF4.5830844896954659
aF-50.713840593630266
aF18.579713412236742
aF-9.5591222049051794
aF-16.024404914105617
aF14.92501624511533
aF144.44282037118228
aF26.228232030689469
aa(lp4941
a(lp4942
a(lp4943
a(lp4944
a(lp4945
a(lp4946
a(lp4947
a(lp4948
a(lp4949
a(lp4950
a(lp4951
a(lp4952
a(lp4953
a(lp4954
a(lp4955
a(lp4956
a(lp4957
a(lp4958
a(lp4959
a(lp4960
a(lp4961
a(lp4962
a(lp4963
F356.66301343439955
aF-9.3532747769131674
aF127.70531014894004
aF879.75471032564201
aF-167.87504222293137
aF-22.07294684808403
aF25.213668664036959
aF42.465993033147242
aF232.29131116409008
aF-6.0860294581743801
aa(lp4964
a(lp4965
a(lp4966
a(lp4967
a(lp4968
a(lp4969
a(lp4970
F258.72563043094488
aF-7.1948697666357475
aF186.54685618457734
aF-295.75613211818563
aF11.880946715336904
aF-69.516926970436543
aF-74.600420418846625
aF14.316428575966711
aF75.11722586173164
aF20.528511868178612
aa(lp4971
a(lp4972
a(lp4973
a(lp4974
a(lp4975
a(lp4976
a(lp4977
a(lp4978
a(lp4979
a(lp4980
a(lp4981
a(lp4982
a(lp4983
a(lp4984
a(lp4985
a(lp4986
a(lp4987
a(lp4988
a(lp4989
a(lp4990
a(lp4991
a(lp4992
a(lp4993
a(lp4994
a(lp4995
F405.08432448405074
aF-7.2850710353122849
aF621.98960648629509
aF1431.2960757933979
aF-272.88246116086157
aF-218.1268129675118
aF53.156313128965849
aF203.00840049003455
aF157.78801554233723
aF-82.234343778964103
aa(lp4996
a(lp4997
a(lp4998
a(lp4999
a(lp5000
a(lp5001
a(lp5002
F1381.0553276982773
aF-3.8428762394460136
aF240.37514343433486
aF2095.0646685946595
aF-808.6770552750977
aF211.50849178752651
aF70.229808457611398
aF85.364187185632545
aF324.49394176126134
aF-41.430585540069842
aa(lp5003
a(lp5004
F-1.1144795308837274
aF-44.814634314604973
aF256.11675447123616
aF3165.8429286096634
aF-970.78578971121487
aF-1033.1205990254944
aF872.96048363327827
aF236.1012317209088
aF286.91193154628536
aF7.4342928257919993
aa(lp5005
a(lp5006
a(lp5007
a(lp5008
a(lp5009
a(lp5010
a(lp5011
F-148.1437381656292
aF-13.858837455416051
aF359.16425602522395
aF1623.6245665268711
aF-238.04684268213805
aF8.2137368906387564
aF-101.17596875858226
aF160.40047405851965
aF139.73802079902953
aF32.04596303874041
aa(lp5012
a(lp5013
a(lp5014
a(lp5015
a(lp5016
a(lp5017
a(lp5018
a(lp5019
a(lp5020
a(lp5021
a(lp5022
a(lp5023
a(lp5024
a(lp5025
a(lp5026
a(lp5027
F753.14006124926891
aF-6.6037991075518221
aF764.97590697499618
aF1354.4762673234345
aF-172.20769521486545
aF-369.03270839161451
aF89.29189121431591
aF83.108831461231603
aF554.05790533313848
aF74.956572149176282
aa(lp5028
a(lp5029
a(lp5030
a(lp5031
a(lp5032
a(lp5033
a(lp5034
a(lp5035
a(lp5036
F520.05230770646449
aF-39.749595259763737
aF842.70158140498097
aF1894.6488722804133
aF-284.35275822857875
aF-122.40765414617272
aF9.0196536461917276
aF132.35490143870265
aF899.83158915174499
aF103.41253613432855
aa(lp5037
a(lp5038
a(lp5039
a(lp5040
a(lp5041
a(lp5042
a(lp5043
a(lp5044
a(lp5045
a(lp5046
a(lp5047
a(lp5048
a(lp5049
a(lp5050
a(lp5051
a(lp5052
a(lp5053
a(lp5054
a(lp5055
a(lp5056
a(lp5057
a(lp5058
a(lp5059
F1683.1232656500106
aF-3.3277174793511222
aF102.00339204402553
aF252.58035094566367
aF-180.49775860617956
aF414.54876367197357
aF-125.39495344299212
aF35.785497232154739
aF1263.9346309128996
aF120.74604569534131
aa(lp5060
a(lp5061
a(lp5062
a(lp5063
a(lp5064
a(lp5065
a(lp5066
a(lp5067
a(lp5068
F2058.6643969977558
aF-2.9286262304140109
aF-114.17539198532722
aF1374.0076859392047
aF97.151038858100947
aF-501.99017636032295
aF-157.06614178156997
aF63.295303931454328
aF1952.3177911651146
aF174.62396471046304
aa(lp5069
a(lp5070
a(lp5071
a(lp5072
a(lp5073
a(lp5074
a(lp5075
a(lp5076
a(lp5077
a(lp5078
a(lp5079
a(lp5080
a(lp5081
a(lp5082
a(lp5083
a(lp5084
a(lp5085
a(lp5086
a(lp5087
a(lp5088
a(lp5089
a(lp5090
a(lp5091
a(lp5092
a(lp5093
a(lp5094
a(lp5095
a(lp5096
a(lp5097
a(lp5098
a(lp5099
a(lp5100
a(lp5101
a(lp5102
a(lp5103
a(lp5104
a(lp5105
a(lp5106
a(lp5107
a(lp5108
a(lp5109
a(lp5110
a(lp5111
a(lp5112
a(lp5113
a(lp5114
a(lp5115
a(lp5116
a(lp5117
a(lp5118
a(lp5119
a(lp5120
a(lp5121
a(lp5122
a(lp5123
a(lp5124
a(lp5125
a(lp5126
a(lp5127
a(lp5128
a(lp5129
a(lp5130
a(lp5131
a(lp5132
a(lp5133
a(lp5134
a(lp5135
a(lp5136
a(lp5137
a(lp5138
a(lp5139
a(lp5140
a(lp5141
a(lp5142
a(lp5143
a(lp5144
a(lp5145
a(lp5146
a(lp5147
a(lp5148
a(lp5149
a(lp5150
a(lp5151
a(lp5152
a(lp5153
a(lp5154
a(lp5155
a(lp5156
a(lp5157
a(lp5158
a(lp5159
a(lp5160
a(lp5161
a(lp5162
a(lp5163
a(lp5164
a(lp5165
a(lp5166
a(lp5167
a(lp5168
a(lp5169
a(lp5170
a(lp5171
a(lp5172
a(lp5173
a(lp5174
a(lp5175
a(lp5176
a(lp5177
a(lp5178
a(lp5179
a(lp5180
a(lp5181
a(lp5182
a(lp5183
a(lp5184
a(lp5185
a(lp5186
a(lp5187
a(lp5188
a(lp5189
a(lp5190
a(lp5191
F-4.4238450458422562
aF0.027490809628716306
aF-3.2212557066202407
aF-1.2285402695155767
aF-1.0899200431069289
aF11.299033975120665
aF2.2590339598949072
aF0.1372503666274838
aF-46.631349515102727
aF-5.4524712966852462
aa(lp5192
a(lp5193
a(lp5194
a(lp5195
a(lp5196
a(lp5197
a(lp5198
a(lp5199
a(lp5200
a(lp5201
a(lp5202
a(lp5203
a(lp5204
a(lp5205
a(lp5206
a(lp5207
a(lp5208
a(lp5209
F69.328489682440875
aF-0.33330884718907328
aF-3.4081747646297345
aF-0.22892463480417291
aF0.71103631871238804
aF-1.451840669908222
aF-1.0324373578285417
aF-1.2420666495316368
aF-13.483492611321424
aF-3.1737386496644149
aa(lp5210
a(lp5211
a(lp5212
a(lp5213
a(lp5214
a(lp5215
a(lp5216
F-81.207480828737744
aF-0.20552177737442889
aF0.14748509080675376
aF4.2199411520726926
aF0.10445821985172188
aF-47.829621285799817
aF-10.230773916930502
aF-1.4856208707669794
aF-18.344868646380519
aF6.9618584674913109
aa(lp5217
a(lp5218
a(lp5219
a(lp5220
a(lp5221
a(lp5222
a(lp5223
a(lp5224
a(lp5225
a(lp5226
a(lp5227
a(lp5228
a(lp5229
a(lp5230
a(lp5231
a(lp5232
a(lp5233
a(lp5234
a(lp5235
a(lp5236
a(lp5237
a(lp5238
a(lp5239
a(lp5240
a(lp5241
F-60.851851246823685
aF0.13057310788155974
aF21.155677787376703
aF4.1788012605792346
aF-16.216441878214027
aF-7.2863138633749713
aF-13.232202356050493
aF-0.36157192795371884
aF-60.576371208043156
aF-7.2295817332701517
aa(lp5242
a(lp5243
a(lp5244
a(lp5245
a(lp5246
a(lp5247
a(lp5248
a(lp5249
a(lp5250
a(lp5251
a(lp5252
a(lp5253
a(lp5254
a(lp5255
F-24.700761835916296
aF0.63288188023591374
aF-12.890338041415816
aF2.6553108600779751
aF-0.23248309943824097
aF5.3979085645750047
aF1.4452992136426701
aF-0.15092411764783265
aF-21.54391869346739
aF-2.6121847351845418
aa(lp5256
a(lp5257
F-118.64729980715083
aF1.1055825588357493
aF-21.903185132288172
aF91.695251303036684
aF-20.892910423953026
aF85.16137608438612
aF68.687598364647329
aF-0.61287694919087699
aF-30.78437353920549
aF-2.1237576142141279
aa(lp5258
a(lp5259
a(lp5260
a(lp5261
a(lp5262
a(lp5263
a(lp5264
a(lp5265
a(lp5266
a(lp5267
a(lp5268
a(lp5269
a(lp5270
a(lp5271
a(lp5272
a(lp5273
a(lp5274
a(lp5275
a(lp5276
a(lp5277
a(lp5278
a(lp5279
a(lp5280
a(lp5281
a(lp5282
a(lp5283
a(lp5284
a(lp5285
a(lp5286
a(lp5287
a(lp5288
a(lp5289
F175.27602862443814
aF-3.7415891718239891
aF-5.3830818913525036
aF3.8275999258985394
aF5.6325595743089707
aF-27.832076820999418
aF-2.1314478182432595
aF7.2637011072629321
aF132.60372400125675
aF20.648685339352824
aa(lp5290
a(lp5291
a(lp5292
a(lp5293
a(lp5294
a(lp5295
a(lp5296
a(lp5297
a(lp5298
a(lp5299
a(lp5300
a(lp5301
a(lp5302
a(lp5303
F-77.6457049767032
aF0.59427520682220347
aF-24.831860656604476
aF13.654128139251043
aF2.412514987781833
aF19.97237362161286
aF15.770924477465087
aF-5.1688530788851494
aF-77.710404866593308
aF-11.434912750019066
aa(lp5304
a(lp5305
F30.48661207927239
aF1.7101324800705697
aF-9.7194387649324199
aF18.581196492561958
aF-2.1452344789452127
aF15.365811645295935
aF-1.6206338493418571
aF-1.6262100110964184
aF-19.712140009175982
aF-5.8173241335168768
aa(lp5306
a(lp5307
a(lp5308
a(lp5309
a(lp5310
a(lp5311
a(lp5312
a(lp5313
a(lp5314
a(lp5315
a(lp5316
a(lp5317
a(lp5318
a(lp5319
a(lp5320
a(lp5321
a(lp5322
a(lp5323
a(lp5324
a(lp5325
a(lp5326
a(lp5327
a(lp5328
F-63.14767890813755
aF4.5681412430553792
aF-55.047737568258981
aF-168.00806523775691
aF71.691936476270257
aF-15.236256878381482
aF-71.753716213152074
aF-22.405892075028078
aF-121.79268473744287
aF-14.808679615896381
aa(lp5329
a(lp5330
a(lp5331
a(lp5332
a(lp5333
a(lp5334
a(lp5335
F136.44762493214557
aF2.0663931898923238
aF-42.495452490243224
aF11.757273910006916
aF48.782052974871704
aF-36.668146918827915
aF-83.473922707355541
aF-10.630160574010006
aF-33.446906488876493
aF-11.717307835112933
aa(lp5336
a(lp5337
a(lp5338
a(lp5339
a(lp5340
a(lp5341
a(lp5342
a(lp5343
a(lp5344
a(lp5345
a(lp5346
a(lp5347
a(lp5348
a(lp5349
a(lp5350
a(lp5351
a(lp5352
a(lp5353
a(lp5354
a(lp5355
a(lp5356
a(lp5357
a(lp5358
a(lp5359
a(lp5360
F303.33307634577977
aF3.6647939793965634
aF-204.96880139830864
aF-273.04838212671712
aF145.56730647541372
aF7.6694121275977523
aF-63.12800522323414
aF-65.479809308044423
aF-97.929993359002765
aF11.138180155967348
aa(lp5361
a(lp5362
a(lp5363
a(lp5364
a(lp5365
a(lp5366
a(lp5367
F-459.13668831332188
aF1.9300621545426111
aF-112.72406403861623
aF-808.6254590367048
aF368.88622787500935
aF-53.365737251453993
aF-101.67559132412407
aF-46.370788808758334
aF-185.37813382124568
aF9.1403094870656787
aa(lp5368
a(lp5369
F114.63085272112039
aF17.48792399780541
aF-144.04391848188425
aF-971.29689038411016
aF324.53042777547125
aF307.02426272455341
aF-319.03325918847258
aF-95.642486996894149
aF-121.29408801797581
aF-8.7628691858299135
aa(lp5370
a(lp5371
a(lp5372
a(lp5373
a(lp5374
a(lp5375
a(lp5376
F126.7400438820232
aF3.429672990051813
aF-69.011420222864217
aF-238.00394632900179
aF77.359506445162651
aF3.2730119947643743
aF-45.191519859599794
aF-35.24347880201617
aF-54.60832959158779
aF-10.844700781831307
aa(lp5377
a(lp5378
a(lp5379
a(lp5380
a(lp5381
a(lp5382
a(lp5383
a(lp5384
a(lp5385
a(lp5386
a(lp5387
a(lp5388
a(lp5389
a(lp5390
a(lp5391
a(lp5392
F-23.911130675458026
aF1.2928933479372517
aF-128.67606145050559
aF-172.1913640118089
aF34.211905219905248
aF45.047034191725288
aF-42.083489137922925
aF-17.290562048799529
aF-114.78265289355249
aF-17.349045933201523
aa(lp5393
a(lp5394
a(lp5395
a(lp5396
a(lp5397
a(lp5398
a(lp5399
a(lp5400
a(lp5401
F27.592258255992874
aF8.4500963559719366
aF-126.25954539657869
aF-284.36810737275664
aF65.624381928586217
aF29.685367675114094
aF-18.952493441304341
aF-26.861010837819776
aF-183.09227947099771
aF-25.012210613795105
aa(lp5402
a(lp5403
a(lp5404
a(lp5405
a(lp5406
a(lp5407
a(lp5408
a(lp5409
a(lp5410
a(lp5411
a(lp5412
a(lp5413
a(lp5414
a(lp5415
a(lp5416
a(lp5417
a(lp5418
a(lp5419
a(lp5420
a(lp5421
a(lp5422
a(lp5423
a(lp5424
F-447.85050619111644
aF1.073637179160869
aF-34.337831067432489
aF-180.4641954095132
aF80.2994236437371
aF-80.987588546577172
aF44.957123890299044
aF-14.734398234850232
aF-441.72041810952578
aF-38.036212401948433
aa(lp5425
a(lp5426
a(lp5427
a(lp5428
a(lp5429
a(lp5430
a(lp5431
a(lp5432
a(lp5433
F175.11442687023759
aF-0.108382280927799
aF-3.7174838318776438
aF97.014177669052515
aF-1.2797084281146454
aF-21.81561118419495
aF-5.8979738426501171
aF2.74148277412678
aF62.677341272632248
aF3.8046304773331485
aa(lp5434
a(lp5435
a(lp5436
a(lp5437
a(lp5438
a(lp5439
a(lp5440
a(lp5441
a(lp5442
a(lp5443
a(lp5444
a(lp5445
a(lp5446
a(lp5447
a(lp5448
a(lp5449
a(lp5450
a(lp5451
a(lp5452
a(lp5453
a(lp5454
a(lp5455
a(lp5456
a(lp5457
a(lp5458
a(lp5459
a(lp5460
a(lp5461
a(lp5462
a(lp5463
a(lp5464
a(lp5465
a(lp5466
a(lp5467
a(lp5468
a(lp5469
a(lp5470
a(lp5471
a(lp5472
a(lp5473
a(lp5474
a(lp5475
a(lp5476
a(lp5477
a(lp5478
a(lp5479
a(lp5480
a(lp5481
a(lp5482
a(lp5483
a(lp5484
a(lp5485
a(lp5486
a(lp5487
a(lp5488
a(lp5489
a(lp5490
a(lp5491
a(lp5492
a(lp5493
a(lp5494
a(lp5495
a(lp5496
a(lp5497
a(lp5498
a(lp5499
a(lp5500
a(lp5501
a(lp5502
a(lp5503
a(lp5504
a(lp5505
a(lp5506
a(lp5507
a(lp5508
a(lp5509
a(lp5510
a(lp5511
a(lp5512
a(lp5513
a(lp5514
a(lp5515
a(lp5516
a(lp5517
a(lp5518
a(lp5519
a(lp5520
a(lp5521
a(lp5522
a(lp5523
a(lp5524
a(lp5525
a(lp5526
a(lp5527
a(lp5528
a(lp5529
a(lp5530
a(lp5531
a(lp5532
a(lp5533
a(lp5534
a(lp5535
a(lp5536
a(lp5537
a(lp5538
a(lp5539
a(lp5540
a(lp5541
a(lp5542
a(lp5543
a(lp5544
a(lp5545
a(lp5546
a(lp5547
a(lp5548
a(lp5549
a(lp5550
a(lp5551
a(lp5552
a(lp5553
a(lp5554
a(lp5555
a(lp5556
F-105.3954188368067
aF0.1279697681155767
aF-2.4726040326328302
aF17.923085549043094
aF11.295925217424951
aF5.4069250854382744
aF-27.439352612290691
aF-1.9593562772257656
aF78.876242382008854
aF14.757788813213324
aa(lp5557
a(lp5558
a(lp5559
a(lp5560
a(lp5561
a(lp5562
a(lp5563
a(lp5564
a(lp5565
a(lp5566
a(lp5567
a(lp5568
a(lp5569
a(lp5570
a(lp5571
a(lp5572
a(lp5573
a(lp5574
F145.88373016266587
aF1.4836525785710819
aF30.389582672540882
aF5.9441779498570213
aF-1.4654500724020636
aF126.15171023355742
aF42.045626891251686
aF7.7918665297715961
aF261.19628708798359
aF25.940903114474168
aa(lp5575
a(lp5576
a(lp5577
a(lp5578
a(lp5579
a(lp5580
a(lp5581
F564.22482046514233
aF2.0645870790758636
aF172.92186811346255
aF-189.05560992266146
aF-47.824587312561562
aF-349.8208052121754
aF32.071131528255137
aF-17.249536199415161
aF253.44768701529574
aF40.531107714514292
aa(lp5582
a(lp5583
a(lp5584
a(lp5585
a(lp5586
a(lp5587
a(lp5588
a(lp5589
a(lp5590
a(lp5591
a(lp5592
a(lp5593
a(lp5594
a(lp5595
a(lp5596
a(lp5597
a(lp5598
a(lp5599
a(lp5600
a(lp5601
a(lp5602
a(lp5603
a(lp5604
a(lp5605
a(lp5606
F-135.44819879030001
aF0.18338575102916366
aF48.709384614653572
aF6.0565561454950512
aF-7.2523356209330814
aF180.10487998765257
aF-58.463784213813597
aF-1.2215267020110332
aF-297.43682041782904
aF-31.941272737867621
aa(lp5607
a(lp5608
a(lp5609
a(lp5610
a(lp5611
a(lp5612
a(lp5613
a(lp5614
a(lp5615
a(lp5616
a(lp5617
a(lp5618
a(lp5619
a(lp5620
F-308.21995276042458
aF11.545553446623558
aF-126.9501006539997
aF-55.882754868008533
aF5.4043610031584421
aF44.94775911467741
aF8.8590408786615171
aF-13.674867727075934
aF-473.20750233836861
aF-42.391907939531848
aa(lp5621
a(lp5622
F-349.84753938260837
aF11.218401851920135
aF-161.6825073824657
aF-78.899812905319777
aF85.14261580216953
aF53.259445564890484
aF-13.408946131221455
aF-15.006816767026976
aF-414.06852702152719
aF-54.328717169482843
aa(lp5623
a(lp5624
a(lp5625
a(lp5626
a(lp5627
a(lp5628
a(lp5629
a(lp5630
a(lp5631
a(lp5632
a(lp5633
a(lp5634
a(lp5635
a(lp5636
a(lp5637
a(lp5638
a(lp5639
a(lp5640
a(lp5641
a(lp5642
a(lp5643
a(lp5644
a(lp5645
a(lp5646
a(lp5647
a(lp5648
a(lp5649
a(lp5650
a(lp5651
a(lp5652
a(lp5653
a(lp5654
F-324.21545430594279
aF12.426739903759199
aF34.191999809252138
aF14.479318544147191
aF-27.834255167391575
aF106.73241161995861
aF60.985110117428576
aF-19.977080700783745
aF-412.46337589839754
aF-69.378128220165536
aa(lp5655
a(lp5656
a(lp5657
a(lp5658
a(lp5659
a(lp5660
a(lp5661
a(lp5662
a(lp5663
a(lp5664
a(lp5665
a(lp5666
a(lp5667
a(lp5668
F-484.94498940954145
aF3.7989934753568377
aF-171.85294751698166
aF-71.548153357525734
aF19.959325925356097
aF980.81263359972581
aF-32.372084035614535
aF2.658821074419393
aF-235.28849624199211
aF-63.599689781312918
aa(lp5669
a(lp5670
F-80.972427873859942
aF9.3497405373454967
aF38.019410730782965
aF-9.5558640111903514
aF15.371315686962816
aF-66.619745364704386
aF5.7024680977235676
aF-14.41612749175647
aF-164.61593626004856
aF-35.699654787890722
aa(lp5671
a(lp5672
a(lp5673
a(lp5674
a(lp5675
a(lp5676
a(lp5677
a(lp5678
a(lp5679
a(lp5680
a(lp5681
a(lp5682
a(lp5683
a(lp5684
a(lp5685
a(lp5686
a(lp5687
a(lp5688
a(lp5689
a(lp5690
a(lp5691
a(lp5692
a(lp5693
F-318.61538190014471
aF0.98902539491518837
aF113.41160579547704
aF-22.083467499101062
aF-15.260098251701493
aF-149.83802429924253
aF-60.671077761753622
aF5.2999922672825051
aF33.657451226076773
aF-3.0041263698876719
aa(lp5694
a(lp5695
a(lp5696
a(lp5697
a(lp5698
a(lp5699
a(lp5700
F-158.42485794337335
aF5.7933277730626287
aF-105.47211459766004
aF-69.489158249780303
aF-36.773379719079458
aF137.99071396647378
aF-112.5635527898794
aF-2.5331139852369233
aF-26.22523211925909
aF7.7647698049077007
aa(lp5701
a(lp5702
a(lp5703
a(lp5704
a(lp5705
a(lp5706
a(lp5707
a(lp5708
a(lp5709
a(lp5710
a(lp5711
a(lp5712
a(lp5713
a(lp5714
a(lp5715
a(lp5716
a(lp5717
a(lp5718
a(lp5719
a(lp5720
a(lp5721
a(lp5722
a(lp5723
a(lp5724
a(lp5725
F-257.66723572573369
aF0.75679764677261119
aF-67.248265711583599
aF-218.38934465279181
aF7.7217094052173252
aF-182.06415148824817
aF-10.809090511543218
aF-20.60190595898348
aF-22.608823257996846
aF23.122330983227357
aa(lp5726
a(lp5727
a(lp5728
a(lp5729
a(lp5730
a(lp5731
a(lp5732
F151.48145529053636
aF-0.10128609062576288
aF32.089828927439612
aF211.37075840726993
aF-53.289894097474644
aF59.635155125192796
aF-28.824730513576924
aF0.97944017340978462
aF-11.853862602606569
aF-7.8123306934685388
aa(lp5733
a(lp5734
F7.9398593477719714
aF14.334616071920436
aF-99.939439213159176
aF-1033.6540494648716
aF307.06896749777002
aF305.87616226540604
aF-332.43963546425448
aF-72.667357997602267
aF-97.502771900792595
aF-7.8343438403294385
aa(lp5735
a(lp5736
a(lp5737
a(lp5738
a(lp5739
a(lp5740
a(lp5741
F7.950079083940409
aF0.70691594800109669
aF-26.05096316443678
aF8.1595789680477537
aF3.2830870466682427
aF59.646362693399624
aF-31.362451657912516
aF-8.3517338822503007
aF-8.1957976405533373
aF0.24971589240863068
aa(lp5742
a(lp5743
a(lp5744
a(lp5745
a(lp5746
a(lp5747
a(lp5748
a(lp5749
a(lp5750
a(lp5751
a(lp5752
a(lp5753
a(lp5754
a(lp5755
a(lp5756
a(lp5757
F-235.47807561641321
aF2.4154820366106833
aF-296.92771885692082
aF-368.91849308773317
aF45.029369033500188
aF95.537996358530108
aF-38.610107111480829
aF-27.135160074465148
aF-196.73636550976425
aF-24.56723446897513
aa(lp5758
a(lp5759
a(lp5760
a(lp5761
a(lp5762
a(lp5763
a(lp5764
a(lp5765
a(lp5766
F-35.123673036707714
aF2.921348674078672
aF-45.939586534871069
aF-122.56050627712511
aF29.715931315621447
aF-88.284866350818447
aF-21.288932483543022
aF-13.316122160489385
aF-76.593344289221932
aF-6.2635456821169555
aa(lp5767
a(lp5768
a(lp5769
a(lp5770
a(lp5771
a(lp5772
a(lp5773
a(lp5774
a(lp5775
a(lp5776
a(lp5777
a(lp5778
a(lp5779
a(lp5780
a(lp5781
a(lp5782
a(lp5783
a(lp5784
a(lp5785
a(lp5786
a(lp5787
a(lp5788
a(lp5789
F78.570724326709751
aF-0.86137532662178273
aF14.592136921010024
aF414.52859989021817
aF-80.970542626346287
aF-57.579065071422519
aF-59.180085543175664
aF2.2312299563509441
aF508.03410189814713
aF32.811603034588188
aa(lp5790
a(lp5791
a(lp5792
a(lp5793
a(lp5794
a(lp5795
a(lp5796
a(lp5797
a(lp5798
F-527.76726491288173
aF0.66050080960167179
aF42.206113448628457
aF-501.90663571925143
aF-21.854712350943828
aF426.11723465313389
aF45.901099454681571
aF-19.344871660109675
aF-589.31739062018096
aF-51.969798775530762
aa(lp5799
a(lp5800
a(lp5801
a(lp5802
a(lp5803
a(lp5804
a(lp5805
a(lp5806
a(lp5807
a(lp5808
a(lp5809
a(lp5810
a(lp5811
a(lp5812
a(lp5813
a(lp5814
a(lp5815
a(lp5816
a(lp5817
a(lp5818
a(lp5819
a(lp5820
a(lp5821
a(lp5822
a(lp5823
a(lp5824
a(lp5825
a(lp5826
a(lp5827
a(lp5828
a(lp5829
a(lp5830
a(lp5831
a(lp5832
a(lp5833
a(lp5834
a(lp5835
a(lp5836
a(lp5837
a(lp5838
a(lp5839
a(lp5840
a(lp5841
a(lp5842
a(lp5843
a(lp5844
a(lp5845
a(lp5846
a(lp5847
a(lp5848
a(lp5849
a(lp5850
a(lp5851
a(lp5852
a(lp5853
a(lp5854
a(lp5855
a(lp5856
a(lp5857
a(lp5858
a(lp5859
a(lp5860
a(lp5861
a(lp5862
a(lp5863
a(lp5864
a(lp5865
a(lp5866
a(lp5867
a(lp5868
a(lp5869
a(lp5870
a(lp5871
a(lp5872
a(lp5873
a(lp5874
a(lp5875
a(lp5876
a(lp5877
a(lp5878
a(lp5879
a(lp5880
a(lp5881
a(lp5882
a(lp5883
a(lp5884
a(lp5885
a(lp5886
a(lp5887
a(lp5888
a(lp5889
a(lp5890
a(lp5891
a(lp5892
a(lp5893
a(lp5894
a(lp5895
a(lp5896
a(lp5897
a(lp5898
a(lp5899
a(lp5900
a(lp5901
a(lp5902
a(lp5903
a(lp5904
a(lp5905
a(lp5906
a(lp5907
a(lp5908
a(lp5909
a(lp5910
a(lp5911
a(lp5912
a(lp5913
a(lp5914
a(lp5915
a(lp5916
a(lp5917
a(lp5918
a(lp5919
a(lp5920
a(lp5921
F-244.82999849695375
aF0.10151000040536928
aF-22.979952607471432
aF0.66097127771058695
aF2.2700880286663505
aF-27.448122086326521
aF-29.730426653884479
aF0.97901144968659537
aF-219.23464554873817
aF-25.015833227115536
aa(lp5922
a(lp5923
a(lp5924
a(lp5925
a(lp5926
a(lp5927
a(lp5928
a(lp5929
a(lp5930
a(lp5931
a(lp5932
a(lp5933
a(lp5934
a(lp5935
a(lp5936
a(lp5937
a(lp5938
a(lp5939
F66.577036061943318
aF3.2626540580338315
aF42.118978971217302
aF-2.9689860348014463
aF-1.0451481458062517
aF42.017447476894176
aF57.098077821393645
aF6.3766710134416371
aF248.36100278591289
aF24.362180717218962
aa(lp5940
a(lp5941
a(lp5942
a(lp5943
a(lp5944
a(lp5945
a(lp5946
F-129.55526145219665
aF0.93663103939434222
aF-58.430693883337881
aF13.654494424031327
aF-10.230786173792694
aF32.075146094712181
aF67.606609377435234
aF-3.0064150280395552
aF-105.32252794348551
aF-16.84040320526492
aa(lp5947
a(lp5948
a(lp5949
a(lp5950
a(lp5951
a(lp5952
a(lp5953
a(lp5954
a(lp5955
a(lp5956
a(lp5957
a(lp5958
a(lp5959
a(lp5960
a(lp5961
a(lp5962
a(lp5963
a(lp5964
a(lp5965
a(lp5966
a(lp5967
a(lp5968
a(lp5969
a(lp5970
a(lp5971
F94.040163745034988
aF-1.1140627975692041
aF-19.78275641079108
aF-22.136545396733709
aF-13.259821862732224
aF-58.477364639486495
aF37.022332577407724
aF4.8670560914843009
aF307.0172867936094
aF38.750473407844765
aa(lp5972
a(lp5973
a(lp5974
a(lp5975
a(lp5976
a(lp5977
a(lp5978
a(lp5979
a(lp5980
a(lp5981
a(lp5982
a(lp5983
a(lp5984
a(lp5985
F-69.593698270864479
aF-4.9770005006166684
aF7.5367356799915797
aF11.975895830573791
aF1.4375014956158338
aF8.7959403316517637
aF62.111601728531696
aF5.8784749512597045
aF226.70454544737595
aF26.157401400439539
aa(lp5986
a(lp5987
F-92.671389140264182
aF-3.0549404783641876
aF-144.50321899062146
aF-82.989104654984658
aF68.696224886366508
aF-13.366294027150616
aF35.012951826729477
aF-5.4032060603503851
aF200.58166860792426
aF35.689255994952873
aa(lp5988
a(lp5989
a(lp5990
a(lp5991
a(lp5992
a(lp5993
a(lp5994
a(lp5995
a(lp5996
a(lp5997
a(lp5998
a(lp5999
a(lp6000
a(lp6001
a(lp6002
a(lp6003
a(lp6004
a(lp6005
a(lp6006
a(lp6007
a(lp6008
a(lp6009
a(lp6010
a(lp6011
a(lp6012
a(lp6013
a(lp6014
a(lp6015
a(lp6016
a(lp6017
a(lp6018
a(lp6019
F-187.89517337580719
aF2.241149577031365
aF14.524835378892931
aF-11.687271861404724
aF-2.1395936578016972
aF61.016451446960218
aF-1.9636462234018381
aF-4.3955441952903129
aF-103.53808272967058
aF-17.197917401290397
aa(lp6020
a(lp6021
a(lp6022
a(lp6023
a(lp6024
a(lp6025
a(lp6026
a(lp6027
a(lp6028
a(lp6029
a(lp6030
a(lp6031
a(lp6032
a(lp6033
F-148.88897350573416
aF0.16947083736340574
aF-22.231982832465746
aF-20.931961941528243
aF15.757865945431604
aF-32.416780193500472
aF-61.667974904366929
aF-5.6062740227957875
aF-101.1091081082327
aF-8.9795175739482147
aa(lp6034
a(lp6035
F-127.08947556561156
aF1.2092448820055779
aF23.031848161991775
aF-16.007177983112797
aF-1.6192016616400906
aF5.6930478997685441
aF-0.17843921895632775
aF-2.7650646217125541
aF-28.98928483929808
aF-1.6310285566589755
aa(lp6036
a(lp6037
a(lp6038
a(lp6039
a(lp6040
a(lp6041
a(lp6042
a(lp6043
a(lp6044
a(lp6045
a(lp6046
a(lp6047
a(lp6048
a(lp6049
a(lp6050
a(lp6051
a(lp6052
a(lp6053
a(lp6054
a(lp6055
a(lp6056
a(lp6057
a(lp6058
F65.83766705148264
aF-4.4097397733366961
aF61.406297646726671
aF25.138658799050972
aF-71.657752442888523
aF-60.640635268782717
aF147.95043767890093
aF23.44045384461424
aF125.83111654862478
aF28.405385421592655
aa(lp6059
a(lp6060
a(lp6061
a(lp6062
a(lp6063
a(lp6064
a(lp6065
F28.001843332958742
aF-5.9122331919070348
aF20.178380211177682
aF-74.6825126185513
aF-83.478313328555487
aF-112.52673566275462
aF178.00926812583384
aF6.5874910859520242
aF58.320625484498123
aF37.231318472663588
aa(lp6066
a(lp6067
a(lp6068
a(lp6069
a(lp6070
a(lp6071
a(lp6072
a(lp6073
a(lp6074
a(lp6075
a(lp6076
a(lp6077
a(lp6078
a(lp6079
a(lp6080
a(lp6081
a(lp6082
a(lp6083
a(lp6084
a(lp6085
a(lp6086
a(lp6087
a(lp6088
a(lp6089
a(lp6090
F-136.31528403834636
aF-2.6156770971397236
aF152.58341310442347
aF52.894576185735787
aF-62.997215266591411
aF-10.729960031596875
aF3.3331822635318531
aF35.554105792812152
aF76.736411891431544
aF-2.5972211048497229
aa(lp6091
a(lp6092
a(lp6093
a(lp6094
a(lp6095
a(lp6096
a(lp6097
F-53.287745060970337
aF-0.98890353683600551
aF17.97033704065143
aF70.135673269078325
aF-101.61565207056356
aF-28.780753424939576
aF94.372201075998419
aF21.562118845963596
aF89.275647141562331
aF7.6724454345367121
aa(lp6098
a(lp6099
F-125.52711581292897
aF-23.902903478756343
aF190.26321638193622
aF872.6359382649207
aF-318.62266069992984
aF-332.04518530283167
aF471.19103783188621
aF107.05958715107045
aF148.7283142864726
aF2.0200573658257781
aa(lp6100
a(lp6101
a(lp6102
a(lp6103
a(lp6104
a(lp6105
a(lp6106
F-175.41183332525634
aF-2.9007278357084942
aF28.485915137821394
aF-101.19571278721651
aF-45.186540376107587
aF-31.361198082890951
aF143.02674067323551
aF18.24667599237273
aF59.40820280159187
aF10.559978491642141
aa(lp6107
a(lp6108
a(lp6109
a(lp6110
a(lp6111
a(lp6112
a(lp6113
a(lp6114
a(lp6115
a(lp6116
a(lp6117
a(lp6118
a(lp6119
a(lp6120
a(lp6121
a(lp6122
F-104.87038100137624
aF-1.7520926487435418
aF156.61627004170953
aF89.597590591239396
aF-42.139353162440329
aF-38.744569863524703
aF63.340623679408736
aF21.454675769305709
aF158.44709890799891
aF25.182091878406254
aa(lp6123
a(lp6124
a(lp6125
a(lp6126
a(lp6127
a(lp6128
a(lp6129
a(lp6130
a(lp6131
F-85.527749327241054
aF-5.5427608280922414
aF16.754001741503544
aF8.9590159291219607
aF-18.942498147822562
aF-21.273056693971171
aF-34.581212204898293
aF10.562217411802521
aF96.776969105150101
aF15.007721199111757
aa(lp6132
a(lp6133
a(lp6134
a(lp6135
a(lp6136
a(lp6137
a(lp6138
a(lp6139
a(lp6140
a(lp6141
a(lp6142
a(lp6143
a(lp6144
a(lp6145
a(lp6146
a(lp6147
a(lp6148
a(lp6149
a(lp6150
a(lp6151
a(lp6152
a(lp6153
a(lp6154
F-155.66457918225751
aF0.49903370324955176
aF-19.378421001192692
aF-125.50912629194499
aF45.000493287261634
aF-59.235353333519924
aF-64.861218262990405
aF-8.0231448151835139
aF-181.04096604076858
aF-18.232176302035441
aa(lp6155
a(lp6156
a(lp6157
a(lp6158
a(lp6159
a(lp6160
a(lp6161
a(lp6162
a(lp6163
F-147.54984563047913
aF0.21065731381497699
aF6.0735609430651039
aF-157.00106268390357
aF-5.8932278168555285
aF45.885462851558145
aF-14.601350883935993
aF-1.1300906432865077
aF-93.204670159607872
aF-2.9625151665158
aa(lp6164
a(lp6165
a(lp6166
a(lp6167
a(lp6168
a(lp6169
a(lp6170
a(lp6171
a(lp6172
a(lp6173
a(lp6174
a(lp6175
a(lp6176
a(lp6177
a(lp6178
a(lp6179
a(lp6180
a(lp6181
a(lp6182
a(lp6183
a(lp6184
a(lp6185
a(lp6186
a(lp6187
a(lp6188
a(lp6189
a(lp6190
a(lp6191
a(lp6192
a(lp6193
a(lp6194
a(lp6195
a(lp6196
a(lp6197
a(lp6198
a(lp6199
a(lp6200
a(lp6201
a(lp6202
a(lp6203
a(lp6204
a(lp6205
a(lp6206
a(lp6207
a(lp6208
a(lp6209
a(lp6210
a(lp6211
a(lp6212
a(lp6213
a(lp6214
a(lp6215
a(lp6216
a(lp6217
a(lp6218
a(lp6219
a(lp6220
a(lp6221
a(lp6222
a(lp6223
a(lp6224
a(lp6225
a(lp6226
a(lp6227
a(lp6228
a(lp6229
a(lp6230
a(lp6231
a(lp6232
a(lp6233
a(lp6234
a(lp6235
a(lp6236
a(lp6237
a(lp6238
a(lp6239
a(lp6240
a(lp6241
a(lp6242
a(lp6243
a(lp6244
a(lp6245
a(lp6246
a(lp6247
a(lp6248
a(lp6249
a(lp6250
a(lp6251
a(lp6252
a(lp6253
a(lp6254
a(lp6255
a(lp6256
a(lp6257
a(lp6258
a(lp6259
a(lp6260
a(lp6261
a(lp6262
a(lp6263
a(lp6264
a(lp6265
a(lp6266
a(lp6267
a(lp6268
a(lp6269
a(lp6270
a(lp6271
a(lp6272
a(lp6273
a(lp6274
a(lp6275
a(lp6276
a(lp6277
a(lp6278
a(lp6279
a(lp6280
a(lp6281
a(lp6282
a(lp6283
a(lp6284
a(lp6285
a(lp6286
F-15.332573538584526
aF-0.007975903271173479
aF-1.5465732805530763
aF0.16476685571475969
aF0.14109617363367022
aF-1.9600340239733782
aF0.99001272735321777
aF0.41569208630853893
aF-1.0464290489675676
aF0.3637901535569199
aa(lp6287
a(lp6288
a(lp6289
a(lp6290
a(lp6291
a(lp6292
a(lp6293
a(lp6294
a(lp6295
a(lp6296
a(lp6297
a(lp6298
a(lp6299
a(lp6300
a(lp6301
a(lp6302
a(lp6303
a(lp6304
F17.508505578689437
aF0.90935952101744988
aF12.32176112253569
aF-0.60847078486858663
aF-1.2445974473251908
aF7.7857570168760049
aF6.377901917709039
aF2.1308481201742779
aF72.768386560895237
aF7.7723250946348799
aa(lp6305
a(lp6306
a(lp6307
a(lp6308
a(lp6309
a(lp6310
a(lp6311
F22.483854067445463
aF0.18429950898735115
aF15.07063061012559
aF-7.512447730562144
aF-1.4840409789940168
aF-17.233132076910351
aF-3.0022569319498871
aF2.1054731291769713
aF65.743714472432657
aF8.42737506445701
aa(lp6312
a(lp6313
a(lp6314
a(lp6315
a(lp6316
a(lp6317
a(lp6318
a(lp6319
a(lp6320
a(lp6321
a(lp6322
a(lp6323
a(lp6324
a(lp6325
a(lp6326
a(lp6327
a(lp6328
a(lp6329
a(lp6330
a(lp6331
a(lp6332
a(lp6333
a(lp6334
a(lp6335
a(lp6336
F-14.269290615764874
aF-0.034892599920510747
aF-0.58612235065425011
aF-1.0283250695408697
aF-0.36582581408595161
aF-1.2390847903276381
aF4.875120662717336
aF0.63606830913442991
aF19.246775528891646
aF2.6206236292125595
aa(lp6337
a(lp6338
a(lp6339
a(lp6340
a(lp6341
a(lp6342
a(lp6343
a(lp6344
a(lp6345
a(lp6346
a(lp6347
a(lp6348
a(lp6349
a(lp6350
F35.914841944872933
aF-1.6938055402704322
aF20.862974814406243
aF6.5253763281702959
aF-0.15144645537645829
aF-13.665510900651157
aF5.8685861503704473
aF1.649751713017622
aF63.476459555289466
aF6.1883277169272333
aa(lp6351
a(lp6352
F55.045239211182206
aF-1.8479085817091345
aF22.34761860009371
aF-1.8746548313686162
aF-0.60543943192215011
aF-14.91753485183267
aF-5.4348143763149892
aF1.8446575822395062
aF65.674609306398679
aF6.7884378118776567
aa(lp6353
a(lp6354
a(lp6355
a(lp6356
a(lp6357
a(lp6358
a(lp6359
a(lp6360
a(lp6361
a(lp6362
a(lp6363
a(lp6364
a(lp6365
a(lp6366
a(lp6367
a(lp6368
a(lp6369
a(lp6370
a(lp6371
a(lp6372
a(lp6373
a(lp6374
a(lp6375
a(lp6376
a(lp6377
a(lp6378
a(lp6379
a(lp6380
a(lp6381
a(lp6382
a(lp6383
a(lp6384
F60.215925090645328
aF-3.245627722137101
aF3.0548890528336869
aF-2.694854650542311
aF7.2656692218231456
aF-19.979311227658059
aF-4.3885845180113847
aF5.2970259734053116
aF103.3836434682911
aF18.251074873631978
aa(lp6385
a(lp6386
a(lp6387
a(lp6388
a(lp6389
a(lp6390
a(lp6391
a(lp6392
a(lp6393
a(lp6394
a(lp6395
a(lp6396
a(lp6397
a(lp6398
F66.446378177431598
aF-0.45253365499320353
aF17.120075312959671
aF10.902676272905865
aF-5.1647944587784878
aF2.6692381638326879
aF-5.6160578409958362
aF3.1772263042739723
aF60.036640903149419
aF8.2347053620424049
aa(lp6399
a(lp6400
F43.000819083260922
aF-5.4367182755754584
aF4.8683689080064596
aF14.912362544805546
aF-1.6222854171132894
aF-14.402850290196056
aF-2.7759764265056219
aF11.082166651021907
aF97.501646578734835
aF18.066997853338762
aa(lp6401
a(lp6402
a(lp6403
a(lp6404
a(lp6405
a(lp6406
a(lp6407
a(lp6408
a(lp6409
a(lp6410
a(lp6411
a(lp6412
a(lp6413
a(lp6414
a(lp6415
a(lp6416
a(lp6417
a(lp6418
a(lp6419
a(lp6420
a(lp6421
a(lp6422
a(lp6423
F16.111293188458831
aF-1.2934378901263699
aF16.058411134167727
aF42.426713697807372
aF-22.373881591875033
aF5.3090650986575838
aF23.436911433805108
aF6.0954383762634734
aF37.728477675358363
aF4.0847305093905106
aa(lp6424
a(lp6425
a(lp6426
a(lp6427
a(lp6428
a(lp6429
a(lp6430
F1.8937528878382182
aF-1.2816265382298297
aF29.986455096775444
aF14.239316570296978
aF-10.623436885737192
aF-2.4861360969907764
aF6.6285815059075048
aF4.0056676198219066
aF21.062113297887208
aF3.2470475197499127
aa(lp6431
a(lp6432
a(lp6433
a(lp6434
a(lp6435
a(lp6436
a(lp6437
a(lp6438
a(lp6439
a(lp6440
a(lp6441
a(lp6442
a(lp6443
a(lp6444
a(lp6445
a(lp6446
a(lp6447
a(lp6448
a(lp6449
a(lp6450
a(lp6451
a(lp6452
a(lp6453
a(lp6454
a(lp6455
F-54.658244152960833
aF-2.0297775904509763
aF134.95511055339193
aF202.98549578967595
aF-65.429908957526095
aF-20.543532386341212
aF35.601410530716748
aF39.6912014366535
aF42.001063960128704
aF-13.742068460942392
aa(lp6456
a(lp6457
a(lp6458
a(lp6459
a(lp6460
a(lp6461
a(lp6462
F31.667660271850195
aF-0.24738597836915233
aF12.226816981097954
aF85.371253844002126
aF-46.363353956024866
aF0.99482551085827708
aF21.555660367766905
aF6.7472533338275298
aF26.658476226515404
aF-0.0074281025774780574
aa(lp6463
a(lp6464
F-71.962850611839713
aF-5.2569379960232254
aF50.758508507442457
aF235.73753651362495
aF-95.40924565953901
aF-72.46768021218486
aF106.90033640514685
aF29.276251112264617
aF45.053238295622577
aF4.2553601531380991
aa(lp6465
a(lp6466
a(lp6467
a(lp6468
a(lp6469
a(lp6470
a(lp6471
F-71.543322111011776
aF-2.4203007598089243
aF51.979717152761395
aF160.30346623452374
aF-35.229007799841838
aF-8.3393351779648128
aF18.239068033665262
aF23.949697158798244
aF36.414055415434632
aF6.106223615631734
aa(lp6472
a(lp6473
a(lp6474
a(lp6475
a(lp6476
a(lp6477
a(lp6478
a(lp6479
a(lp6480
a(lp6481
a(lp6482
a(lp6483
a(lp6484
a(lp6485
a(lp6486
a(lp6487
F14.588342445165381
aF-0.68486367688080918
aF67.986093199579045
aF83.302833653320363
aF-17.320444856139261
aF-27.211585029718321
aF21.455645971002468
aF9.2864108847123816
aF60.272017154971991
aF8.8407032361459414
aa(lp6488
a(lp6489
a(lp6490
a(lp6491
a(lp6492
a(lp6493
a(lp6494
a(lp6495
a(lp6496
F-9.1063252050105348
aF-4.7484319587454138
aF65.918877290016553
aF132.34162423714224
aF-26.858131674245556
aF-13.301044399227635
aF10.567653863091664
aF14.540826231979054
aF103.10901892296442
aF13.4274699359338
aa(lp6497
a(lp6498
a(lp6499
a(lp6500
a(lp6501
a(lp6502
a(lp6503
a(lp6504
a(lp6505
a(lp6506
a(lp6507
a(lp6508
a(lp6509
a(lp6510
a(lp6511
a(lp6512
a(lp6513
a(lp6514
a(lp6515
a(lp6516
a(lp6517
a(lp6518
a(lp6519
F62.409167078669725
aF-0.23103128299339915
aF8.6044074087965328
aF35.872345272025541
aF-14.75946085349733
aF2.2675964217455657
aF-8.0281937542281412
aF4.2176874437416245
aF101.50071387826642
aF11.649993325590913
aa(lp6520
a(lp6521
a(lp6522
a(lp6523
a(lp6524
a(lp6525
a(lp6526
a(lp6527
a(lp6528
F52.219296886590882
aF-0.16121268764379693
aF-6.0091365661207874
aF63.042813902569605
aF2.7496608545618528
aF-19.272813656101562
aF-1.1313590064787604
aF4.640810136180562
aF112.31163155045465
aF12.660097592487318
aa(lp6529
a(lp6530
a(lp6531
a(lp6532
a(lp6533
a(lp6534
a(lp6535
a(lp6536
a(lp6537
a(lp6538
a(lp6539
a(lp6540
a(lp6541
a(lp6542
a(lp6543
a(lp6544
a(lp6545
a(lp6546
a(lp6547
a(lp6548
a(lp6549
a(lp6550
a(lp6551
a(lp6552
a(lp6553
a(lp6554
a(lp6555
a(lp6556
a(lp6557
a(lp6558
a(lp6559
a(lp6560
a(lp6561
a(lp6562
a(lp6563
a(lp6564
a(lp6565
a(lp6566
a(lp6567
a(lp6568
a(lp6569
a(lp6570
a(lp6571
a(lp6572
a(lp6573
a(lp6574
a(lp6575
a(lp6576
a(lp6577
a(lp6578
a(lp6579
a(lp6580
a(lp6581
a(lp6582
a(lp6583
a(lp6584
a(lp6585
a(lp6586
a(lp6587
a(lp6588
a(lp6589
a(lp6590
a(lp6591
a(lp6592
a(lp6593
a(lp6594
a(lp6595
a(lp6596
a(lp6597
a(lp6598
a(lp6599
a(lp6600
a(lp6601
a(lp6602
a(lp6603
a(lp6604
a(lp6605
a(lp6606
a(lp6607
a(lp6608
a(lp6609
a(lp6610
a(lp6611
a(lp6612
a(lp6613
a(lp6614
a(lp6615
a(lp6616
a(lp6617
a(lp6618
a(lp6619
a(lp6620
a(lp6621
a(lp6622
a(lp6623
a(lp6624
a(lp6625
a(lp6626
a(lp6627
a(lp6628
a(lp6629
a(lp6630
a(lp6631
a(lp6632
a(lp6633
a(lp6634
a(lp6635
a(lp6636
a(lp6637
a(lp6638
a(lp6639
a(lp6640
a(lp6641
a(lp6642
a(lp6643
a(lp6644
a(lp6645
a(lp6646
a(lp6647
a(lp6648
a(lp6649
a(lp6650
a(lp6651
F2352.9814086487022
aF-2.5690439997561043
aF273.29930958330806
aF-110.0705702583582
aF-46.60379602228204
aF79.024238175406936
aF-219.19959181104787
aF-0.88961087385541759
aF3512.6247070138561
aF459.48429772124655
aa(lp6652
a(lp6653
a(lp6654
a(lp6655
a(lp6656
a(lp6657
a(lp6658
a(lp6659
a(lp6660
a(lp6661
a(lp6662
a(lp6663
a(lp6664
a(lp6665
a(lp6666
a(lp6667
a(lp6668
a(lp6669
F1408.9483926227331
aF33.452843695158663
aF483.82326554019528
aF12.965655571406387
aF-13.648475771788071
aF261.05432198164635
aF248.57300360281442
aF72.801545059064665
aF3152.8314522688561
aF301.74319789466608
aa(lp6670
a(lp6671
a(lp6672
a(lp6673
a(lp6674
a(lp6675
a(lp6676
F1343.3537503715343
aF1.5212549442367163
aF919.60615122843592
aF-105.31297220950364
aF-18.282065639141365
aF253.56759465466894
aF-105.29052474339551
aF65.835365603561513
aF3387.4126245336811
aF416.0003754805075
aa(lp6677
a(lp6678
a(lp6679
a(lp6680
a(lp6681
a(lp6682
a(lp6683
a(lp6684
a(lp6685
a(lp6686
a(lp6687
a(lp6688
a(lp6689
a(lp6690
a(lp6691
a(lp6692
a(lp6693
a(lp6694
a(lp6695
a(lp6696
a(lp6697
a(lp6698
a(lp6699
a(lp6700
a(lp6701
F1161.2384440695678
aF-6.2301978687173687
aF-62.623504959447018
aF29.640301590916351
aF-60.805996326962486
aF-297.38813509538886
aF306.81293594625458
aF19.146511931467103
aF3149.0285095969739
aF383.79793068088475
aa(lp6702
a(lp6703
a(lp6704
a(lp6705
a(lp6706
a(lp6707
a(lp6708
a(lp6709
a(lp6710
a(lp6711
a(lp6712
a(lp6713
a(lp6714
a(lp6715
F1022.5001787489418
aF-65.850682062773558
aF814.63846299811848
aF209.77934269694742
aF-21.576120445843117
aF-473.17771816324239
aF226.37928651647599
aF63.512767667361913
aF2571.0233444442565
aF234.75294312902406
aa(lp6716
a(lp6717
F530.09095495326619
aF-64.251383946611895
aF843.87614265324373
aF222.91806089924648
aF-30.730728894923232
aF-413.67724179508514
aF200.56145331182051
aF66.024341549564269
aF2548.6910942618124
aF230.31794285088836
aa(lp6718
a(lp6719
a(lp6720
a(lp6721
a(lp6722
a(lp6723
a(lp6724
a(lp6725
a(lp6726
a(lp6727
a(lp6728
a(lp6729
a(lp6730
a(lp6731
a(lp6732
a(lp6733
a(lp6734
a(lp6735
a(lp6736
a(lp6737
a(lp6738
a(lp6739
a(lp6740
a(lp6741
a(lp6742
a(lp6743
a(lp6744
a(lp6745
a(lp6746
a(lp6747
a(lp6748
a(lp6749
F1274.5725420870713
aF-64.760364892890721
aF29.027339110143657
aF21.226626500947532
aF132.63694782494895
aF-412.54425866554811
aF-103.3977760300786
aF103.3908255010374
aF2060.3784108175205
aF359.31514261733355
aa(lp6750
a(lp6751
a(lp6752
a(lp6753
a(lp6754
a(lp6755
a(lp6756
a(lp6757
a(lp6758
a(lp6759
a(lp6760
a(lp6761
a(lp6762
a(lp6763
F267.04192634952051
aF-6.97782525094226
aF229.07999550625391
aF165.22166959020979
aF-77.770923212483467
aF-235.49908405584574
aF-101.30888483672607
aF60.089479347880115
aF909.74634190388315
aF140.31396347036207
aa(lp6764
a(lp6765
F94.461886135377426
aF-51.131304701357294
aF37.188482338024187
aF144.40703495210983
aF-19.712955889872319
aF-164.58077567449436
aF-29.06893996623694
aF97.559154710324947
aF875.43103077791784
aF165.04975661746357
aa(lp6766
a(lp6767
a(lp6768
a(lp6769
a(lp6770
a(lp6771
a(lp6772
a(lp6773
a(lp6774
a(lp6775
a(lp6776
a(lp6777
a(lp6778
a(lp6779
a(lp6780
a(lp6781
a(lp6782
a(lp6783
a(lp6784
a(lp6785
a(lp6786
a(lp6787
a(lp6788
F126.57771577551102
aF-9.6231623558651336
aF129.79036121407717
aF232.20316549554809
aF-121.61603635263418
aF33.688509404328215
aF125.85334872028398
aF37.748723258346217
aF255.68961667943313
aF26.978153044865394
aa(lp6789
a(lp6790
a(lp6791
a(lp6792
a(lp6793
a(lp6794
a(lp6795
F-387.05317848553022
aF-5.5300340306985163
aF145.40119721573319
aF75.056958337427204
aF-33.385877884484216
aF-26.230409844174574
aF58.412094006143889
aF21.086127333092008
aF66.557687716795044
aF13.715897750898876
aa(lp6796
a(lp6797
a(lp6798
a(lp6799
a(lp6800
a(lp6801
a(lp6802
a(lp6803
a(lp6804
a(lp6805
a(lp6806
a(lp6807
a(lp6808
a(lp6809
a(lp6810
a(lp6811
a(lp6812
a(lp6813
a(lp6814
a(lp6815
a(lp6816
a(lp6817
a(lp6818
a(lp6819
a(lp6820
F-7.9518258644384332
aF-2.8918819339196489
aF164.24272288872999
aF157.73444204114639
aF-97.859422254487072
aF-22.542669597669374
aF76.787163294511629
aF41.996361233032076
aF52.145482243304286
aF-5.3638558483726229
aa(lp6821
a(lp6822
a(lp6823
a(lp6824
a(lp6825
a(lp6826
a(lp6827
F69.752207210171946
aF-0.83577980092286452
aF41.910139714218531
aF324.45717188522849
aF-185.34075785225923
aF-11.795892973509581
aF89.274184844612137
aF26.661855301313153
aF111.80098447027831
aF1.1064546612260528
aa(lp6828
a(lp6829
F-338.92764719212209
aF-8.4606831762812362
aF71.680479862834545
aF286.34933713078681
aF-120.94214483227006
aF-97.186790526393452
aF148.50775897912172
aF45.066087750456063
aF72.865802280830394
aF5.1995712624375301
aa(lp6830
a(lp6831
a(lp6832
a(lp6833
a(lp6834
a(lp6835
a(lp6836
F-251.62462229388893
aF-3.2597922583477157
aF71.626799069690605
aF139.77485391336586
aF-54.617748546093026
aF-8.1862353340511618
aF59.41179246349293
aF36.438759742907223
aF67.451454377476239
aF8.2893402364447866
aa(lp6837
a(lp6838
a(lp6839
a(lp6840
a(lp6841
a(lp6842
a(lp6843
a(lp6844
a(lp6845
a(lp6846
a(lp6847
a(lp6848
a(lp6849
a(lp6850
a(lp6851
a(lp6852
F233.60372161107534
aF-5.0579082255808316
aF515.27763922365466
aF554.06720740336368
aF-114.7816917068667
aF-196.81882790223426
aF158.20566900970334
aF60.151405634201183
aF435.75964028264025
aF64.868665816675275
aa(lp6853
a(lp6854
a(lp6855
a(lp6856
a(lp6857
a(lp6858
a(lp6859
a(lp6860
a(lp6861
F149.10314867222496
aF-36.473838704864647
aF502.75740868244156
aF899.79600303990992
aF-183.07897597935607
aF-76.464515075258532
aF96.816127026499998
aF103.11337845791968
aF770.53415772354583
aF101.84805852020418
aa(lp6862
a(lp6863
a(lp6864
a(lp6865
a(lp6866
a(lp6867
a(lp6868
a(lp6869
a(lp6870
a(lp6871
a(lp6872
a(lp6873
a(lp6874
a(lp6875
a(lp6876
a(lp6877
a(lp6878
a(lp6879
a(lp6880
a(lp6881
a(lp6882
a(lp6883
a(lp6884
F1438.7177657226857
aF-6.6807302800953039
aF255.92186716494325
aF1263.8778571272269
aF-441.67859414301347
aF508.1088630731756
aF-180.83666191159864
aF101.37131312148995
aF2953.0086749218754
aF292.0084682500601
aa(lp6885
a(lp6886
a(lp6887
a(lp6888
a(lp6889
a(lp6890
a(lp6891
a(lp6892
a(lp6893
F1552.1442108479278
aF-4.2239221897943935
aF-154.87498785660136
aF1952.5403288866983
aF62.9373843707981
aF-589.50661099288482
aF-93.279327018080949
aF112.77721938540708
aF2840.4857914665627
aF304.12697071824368
aa(lp6894
a(lp6895
a(lp6896
a(lp6897
a(lp6898
a(lp6899
a(lp6900
a(lp6901
a(lp6902
a(lp6903
a(lp6904
a(lp6905
a(lp6906
a(lp6907
a(lp6908
a(lp6909
a(lp6910
a(lp6911
a(lp6912
a(lp6913
a(lp6914
a(lp6915
a(lp6916
a(lp6917
a(lp6918
a(lp6919
a(lp6920
a(lp6921
a(lp6922
a(lp6923
a(lp6924
a(lp6925
a(lp6926
a(lp6927
a(lp6928
a(lp6929
a(lp6930
a(lp6931
a(lp6932
a(lp6933
a(lp6934
a(lp6935
a(lp6936
a(lp6937
a(lp6938
a(lp6939
a(lp6940
a(lp6941
a(lp6942
a(lp6943
a(lp6944
a(lp6945
a(lp6946
a(lp6947
a(lp6948
a(lp6949
a(lp6950
a(lp6951
a(lp6952
a(lp6953
a(lp6954
a(lp6955
a(lp6956
a(lp6957
a(lp6958
a(lp6959
a(lp6960
a(lp6961
a(lp6962
a(lp6963
a(lp6964
a(lp6965
a(lp6966
a(lp6967
a(lp6968
a(lp6969
a(lp6970
a(lp6971
a(lp6972
a(lp6973
a(lp6974
a(lp6975
a(lp6976
a(lp6977
a(lp6978
a(lp6979
a(lp6980
a(lp6981
a(lp6982
a(lp6983
a(lp6984
a(lp6985
a(lp6986
a(lp6987
a(lp6988
a(lp6989
a(lp6990
a(lp6991
a(lp6992
a(lp6993
a(lp6994
a(lp6995
a(lp6996
a(lp6997
a(lp6998
a(lp6999
a(lp7000
a(lp7001
a(lp7002
a(lp7003
a(lp7004
a(lp7005
a(lp7006
a(lp7007
a(lp7008
a(lp7009
a(lp7010
a(lp7011
a(lp7012
a(lp7013
a(lp7014
a(lp7015
a(lp7016
F277.63520265011721
aF-0.36078056098176603
aF33.333491700204831
aF-14.286857563661215
aF-5.4492620193968833
aF14.781361556970296
aF-25.038369244612113
aF0.38234837518302811
aF459.84812260257968
aF60.629935560996273
aa(lp7017
a(lp7018
a(lp7019
a(lp7020
a(lp7021
a(lp7022
a(lp7023
a(lp7024
a(lp7025
a(lp7026
a(lp7027
a(lp7028
a(lp7029
a(lp7030
a(lp7031
a(lp7032
a(lp7033
a(lp7034
F78.193569486018077
aF3.8475455710340611
aF48.096285887311296
aF1.3911844121139438
aF-3.1893893748247137
aF25.926976654488953
aF24.382372654230267
aF7.7763249173301574
aF301.75134302368178
aF30.085710278626721
aa(lp7035
a(lp7036
a(lp7037
a(lp7038
a(lp7039
a(lp7040
a(lp7041
F154.95949554633626
aF0.51159361191821517
aF111.75723173550978
aF-19.166110831747574
aF6.9698380400495807
aF40.560222203112062
aF-16.837966398952631
aF8.4365026964405843
aF415.96821986900068
aF49.885309749697626
aa(lp7042
a(lp7043
a(lp7044
a(lp7045
a(lp7046
a(lp7047
a(lp7048
a(lp7049
a(lp7050
a(lp7051
a(lp7052
a(lp7053
a(lp7054
a(lp7055
a(lp7056
a(lp7057
a(lp7058
a(lp7059
a(lp7060
a(lp7061
a(lp7062
a(lp7063
a(lp7064
a(lp7065
a(lp7066
F89.993871910110101
aF-0.8099565462771352
aF-4.0233917530940744
aF1.7138795271876006
aF-7.2649307014671649
aF-31.967174507485652
aF38.751161213212981
aF2.6092372706898459
aF384.10407903199939
aF48.009126629722232
aa(lp7067
a(lp7068
a(lp7069
a(lp7070
a(lp7071
a(lp7072
a(lp7073
a(lp7074
a(lp7075
a(lp7076
a(lp7077
a(lp7078
a(lp7079
a(lp7080
F6.2362140340610495
aF-6.6537081622186633
aF83.799385919292035
aF13.354985739510994
aF-2.6175186462751299
aF-42.425438806503735
aF26.139940523250971
aF6.195626589544645
aF234.93176648514691
aF26.256088503373576
aa(lp7081
a(lp7082
F-35.348773153032198
aF-6.9387947831955898
aF91.604303520398389
aF24.891678762628544
aF-2.1134376027021062
aF-54.248805980705583
aF35.673000553515521
aF6.8167256728202119
aF230.14824890310592
aF30.252235205807665
aa(lp7083
a(lp7084
a(lp7085
a(lp7086
a(lp7087
a(lp7088
a(lp7089
a(lp7090
a(lp7091
a(lp7092
a(lp7093
a(lp7094
a(lp7095
a(lp7096
a(lp7097
a(lp7098
a(lp7099
a(lp7100
a(lp7101
a(lp7102
a(lp7103
a(lp7104
a(lp7105
a(lp7106
a(lp7107
a(lp7108
a(lp7109
a(lp7110
a(lp7111
a(lp7112
a(lp7113
a(lp7114
F204.53723372781951
aF-11.30042956987154
aF10.332281874525506
aF4.0450812477388354
aF20.651598298115914
aF-69.38303229730991
aF-17.170489918783005
aF18.250147881815337
aF359.26713994882675
aF63.264459093659298
aa(lp7115
a(lp7116
a(lp7117
a(lp7118
a(lp7119
a(lp7120
a(lp7121
a(lp7122
a(lp7123
a(lp7124
a(lp7125
a(lp7126
a(lp7127
a(lp7128
F33.347028960406533
aF-1.2497785917275905
aF46.92782127335704
aF31.553742729784062
aF-11.43630470323842
aF-63.586400500525997
aF-9.0043293710095895
aF8.2413393442948291
aF140.24292269709804
aF21.628734714340681
aa(lp7129
a(lp7130
F10.158068697307954
aF-9.2607521651189018
aF12.2588058815154
aF26.239125539007091
aF-5.8169291605736362
aF-35.71074422836773
aF-1.6509597244862562
aF18.087015618561963
aF165.13429468290042
aF31.64679966971562
aa(lp7131
a(lp7132
a(lp7133
a(lp7134
a(lp7135
a(lp7136
a(lp7137
a(lp7138
a(lp7139
a(lp7140
a(lp7141
a(lp7142
a(lp7143
a(lp7144
a(lp7145
a(lp7146
a(lp7147
a(lp7148
a(lp7149
a(lp7150
a(lp7151
a(lp7152
a(lp7153
F-40.82527720328244
aF-0.75958013212584774
aF9.4737577782666449
aF-6.0895123610293922
aF-14.795133651546166
aF-3.0002405893014839
aF28.404547869342878
aF4.0851636740057984
aF26.979054723597073
aF4.4631761397795344
aa(lp7154
a(lp7155
a(lp7156
a(lp7157
a(lp7158
a(lp7159
a(lp7160
F-90.634585392379563
aF0.016459855700645676
aF12.352729727993506
aF20.559192304148155
aF-11.733482940812223
aF7.7374153750753294
aF37.254946283482582
aF3.2518161052763617
aF13.747595106750055
aF6.1497424930223588
aa(lp7161
a(lp7162
a(lp7163
a(lp7164
a(lp7165
a(lp7166
a(lp7167
a(lp7168
a(lp7169
a(lp7170
a(lp7171
a(lp7172
a(lp7173
a(lp7174
a(lp7175
a(lp7176
a(lp7177
a(lp7178
a(lp7179
a(lp7180
a(lp7181
a(lp7182
a(lp7183
a(lp7184
a(lp7185
F-11.485067963334927
aF0.38353529241419437
aF-39.279070884745693
aF-82.385329713829947
aF11.183451720242488
aF23.125427350834116
aF-2.6513218731594179
aF-13.777873508757921
aF-5.4083669986937366
aF4.880280313201979
aa(lp7186
a(lp7187
a(lp7188
a(lp7189
a(lp7190
a(lp7191
a(lp7192
F-54.114205338962051
aF0.0096419761064225895
aF-3.4990160102665868
aF-41.49405419262564
aF9.183163385273474
aF-7.806045276836926
aF7.6490008105167817
aF-0.011766809748792184
aF1.0803534511438784
aF0.98864947339905029
aa(lp7193
a(lp7194
F-45.976180018669766
aF-1.0094034053054202
aF10.021768126478037
aF6.9517510858929654
aF-8.5451102194156192
aF-7.6518309910511562
aF1.7741313307340079
aF4.1985153131918196
aF5.1066148643030829
aF-0.39744758595361418
aa(lp7195
a(lp7196
a(lp7197
a(lp7198
a(lp7199
a(lp7200
a(lp7201
F-39.207555579956477
aF-0.59751557035525593
aF12.516811431773078
aF31.976541325917651
aF-10.83574614479943
aF0.25412789650403056
aF10.561183927393358
aF6.1013558205758045
aF8.2777466881012174
aF2.2004396305064233
aa(lp7202
a(lp7203
a(lp7204
a(lp7205
a(lp7206
a(lp7207
a(lp7208
a(lp7209
a(lp7210
a(lp7211
a(lp7212
a(lp7213
a(lp7214
a(lp7215
a(lp7216
a(lp7217
F19.143843754676482
aF-0.73153829660554948
aF72.882594759349217
aF75.093028861772382
aF-17.372832683548722
aF-24.625426586766253
aF25.177835949463656
aF8.8365650352528746
aF64.965499602109844
aF10.341130307622848
aa(lp7218
a(lp7219
a(lp7220
a(lp7221
a(lp7222
a(lp7223
a(lp7224
a(lp7225
a(lp7226
F-3.2745111511189862
aF-5.0520768901662905
aF61.833031494984425
aF103.32866038353927
aF-24.999209369269693
aF-6.2430458136475409
aF15.010896037281896
aF13.421711653194279
aF101.8008793263192
aF12.995550724426153
aa(lp7227
a(lp7228
a(lp7229
a(lp7230
a(lp7231
a(lp7232
a(lp7233
a(lp7234
a(lp7235
a(lp7236
a(lp7237
a(lp7238
a(lp7239
a(lp7240
a(lp7241
a(lp7242
a(lp7243
a(lp7244
a(lp7245
a(lp7246
a(lp7247
a(lp7248
a(lp7249
F74.807714511848644
aF-0.69377037448248302
aF27.949599612497877
aF120.56037093088889
aF-37.967182109355235
aF32.756416246115805
aF-18.191690287494566
aF11.627759732846243
aF291.62093753143381
aF33.670079702119438
aa(lp7250
a(lp7251
a(lp7252
a(lp7253
a(lp7254
a(lp7255
a(lp7256
a(lp7257
a(lp7258
F87.841810803013232
aF-0.45284771488240949
aF-16.237368072324898
aF174.7482086145169
aF3.8387483414226153
aF-52.019398566471864
aF-2.9734826156868621
aF12.721644537805332
aF304.2741628433987
aF36.194901298358673
aa(lp7259
a(lp7260
a(lp7261
a(lp7262
a(lp7263
a(lp7264
a(lp7265
a(lp7266
a(lp7267
a(lp7268
a(lp7269
a(lp7270
a(lp7271
a(lp7272
a(lp7273
a(lp7274
a(lp7275
a(lp7276
a(lp7277
a(lp7278
a(lp7279
a(lp7280
a(lp7281
a(lp7282
a(lp7283
a(lp7284
a(lp7285
a(lp7286
a(lp7287
a(lp7288
a(lp7289
a(lp7290
a(lp7291
a(lp7292
a(lp7293
a(lp7294
a(lp7295
a(lp7296
a(lp7297
a(lp7298
a(lp7299
a(lp7300
a(lp7301
a(lp7302
a(lp7303
a(lp7304
a(lp7305
a(lp7306
a(lp7307
a(lp7308
a(lp7309
a(lp7310
a(lp7311
a(lp7312
a(lp7313
a(lp7314
a(lp7315
a(lp7316
a(lp7317
a(lp7318
a(lp7319
a(lp7320
a(lp7321
a(lp7322
atbsb.